(lp0
ccopy_reg
_reconstructor
p1
(cgraspit_interface.msg._Grasp
Grasp
p2
c__builtin__
object
p3
Ntp4
Rp5
(lp6
I0
ag1
(cgeometry_msgs.msg._Pose
Pose
p7
g3
Ntp8
Rp9
(lp10
g1
(cgeometry_msgs.msg._Point
Point
p11
g3
Ntp12
Rp13
(lp14
F0.10579157205453234
aF0.09934489874790096
aF8.348877145181179e-18
abag1
(cgeometry_msgs.msg._Quaternion
Quaternion
p15
g3
Ntp16
Rp17
(lp18
F-0.657451258159381
aF-0.2603033675246003
aF-0.6574512581593809
aF0.2603033675246003
ababa(F0.4000000000000002
F0.5275000000000003
F0.4000000000000002
F0.5550000000000004
tp19
aF0.3959534306450156
aF3.182657575557083
ag1
(cgeometry_msgs.msg._Vector3Stamped
Vector3Stamped
p20
g3
Ntp21
Rp22
(lp23
g1
(cstd_msgs.msg._Header
Header
p24
g3
Ntp25
Rp26
(lp27
I0
ag1
(cgenpy.rostime
Time
p28
g3
Ntp29
Rp30
(lp31
I0
aI0
abaS''
p32
abag1
(cgeometry_msgs.msg._Vector3
Vector3
p33
g3
Ntp34
Rp35
(lp36
F0.0
aF0.0
aF0.0
abababag1
(g2
g3
Ntp37
Rp38
(lp39
I0
ag1
(g7
g3
Ntp40
Rp41
(lp42
g1
(g11
g3
Ntp43
Rp44
(lp45
F-0.0938009239914557
aF-0.11338583938222466
aF-1.4210854715202004e-17
abag1
(g15
g3
Ntp46
Rp47
(lp48
F-0.6398093445997586
aF-0.30107142435446677
aF0.6398093445997585
aF-0.3010714243544669
ababa(F0.4050000000000002
F0.45750000000000024
F0.4125000000000002
F0.4975000000000003
tp49
aF0.34658097276662525
aF3.162961907681827
ag1
(g20
g3
Ntp50
Rp51
(lp52
g1
(g24
g3
Ntp53
Rp54
(lp55
I0
ag1
(g28
g3
Ntp56
Rp57
(lp58
I0
aI0
abag32
abag1
(g33
g3
Ntp59
Rp60
(lp61
F0.0
aF0.0
aF0.0
abababag1
(g2
g3
Ntp62
Rp63
(lp64
I0
ag1
(g7
g3
Ntp65
Rp66
(lp67
g1
(g11
g3
Ntp68
Rp69
(lp70
F0.10579157205453246
aF-0.0993448987479008
aF1.0036416142611416e-17
abag1
(g15
g3
Ntp71
Rp72
(lp73
F-0.2603033675245999
aF-0.657451258159381
aF0.2603033675245998
aF-0.6574512581593811
ababa(F0.4000000000000002
F0.5275000000000003
F0.4000000000000002
F0.5550000000000004
tp74
aF0.39206009152683025
aF3.1382881079179126
ag1
(g20
g3
Ntp75
Rp76
(lp77
g1
(g24
g3
Ntp78
Rp79
(lp80
I0
ag1
(g28
g3
Ntp81
Rp82
(lp83
I0
aI0
abag32
abag1
(g33
g3
Ntp84
Rp85
(lp86
F0.0
aF0.0
aF0.0
abababag1
(g2
g3
Ntp87
Rp88
(lp89
I0
ag1
(g7
g3
Ntp90
Rp91
(lp92
g1
(g11
g3
Ntp93
Rp94
(lp95
F-0.09380092399145559
aF0.11338583938222477
aF2.842170943040401e-17
abag1
(g15
g3
Ntp96
Rp97
(lp98
F-0.3010714243544672
aF-0.6398093445997584
aF-0.30107142435446715
aF0.6398093445997585
ababa(F0.4050000000000002
F0.45750000000000024
F0.4125000000000002
F0.4975000000000003
tp99
aF0.3611028190866693
aF3.09177292792008
ag1
(g20
g3
Ntp100
Rp101
(lp102
g1
(g24
g3
Ntp103
Rp104
(lp105
I0
ag1
(g28
g3
Ntp106
Rp107
(lp108
I0
aI0
abag32
abag1
(g33
g3
Ntp109
Rp110
(lp111
F0.0
aF0.0
aF0.0
abababag1
(g2
g3
Ntp112
Rp113
(lp114
I0
ag1
(g7
g3
Ntp115
Rp116
(lp117
g1
(g11
g3
Ntp118
Rp119
(lp120
F0.00887700969845671
aF0.14109602873154695
aF9.414691248821328e-18
abag1
(g15
g3
Ntp121
Rp122
(lp123
F-0.5154586597219302
aF-0.48404790064380154
aF-0.51545865972193
aF0.48404790064380154
ababa(F0.37000000000000016
F0.37000000000000016
F0.38125000000000014
F0.38125000000000014
tp124
aF0.3346543341871337
aF1.370201915267101
ag1
(g20
g3
Ntp125
Rp126
(lp127
g1
(g24
g3
Ntp128
Rp129
(lp130
I0
ag1
(g28
g3
Ntp131
Rp132
(lp133
I0
aI0
abag32
abag1
(g33
g3
Ntp134
Rp135
(lp136
F0.0
aF0.0
aF0.0
abababag1
(g2
g3
Ntp137
Rp138
(lp139
I0
ag1
(g7
g3
Ntp140
Rp141
(lp142
g1
(g11
g3
Ntp143
Rp144
(lp145
F0.008877009698456726
aF-0.14109602873154695
aF1.8829382497642655e-17
abag1
(g15
g3
Ntp146
Rp147
(lp148
F-0.48404790064380177
aF-0.5154586597219301
aF0.4840479006438015
aF-0.5154586597219301
ababa(F0.37000000000000016
F0.37000000000000016
F0.38125000000000014
F0.38125000000000014
tp149
aF0.32906263732646596
aF1.284281035971926
ag1
(g20
g3
Ntp150
Rp151
(lp152
g1
(g24
g3
Ntp153
Rp154
(lp155
I0
ag1
(g28
g3
Ntp156
Rp157
(lp158
I0
aI0
abag32
abag1
(g33
g3
Ntp159
Rp160
(lp161
F0.0
aF0.0
aF0.0
abababag1
(g2
g3
Ntp162
Rp163
(lp164
I0
ag1
(g7
g3
Ntp165
Rp166
(lp167
g1
(g11
g3
Ntp168
Rp169
(lp170
F-0.02694484747081908
aF0.14124983700712693
aF0.0
abag1
(g15
g3
Ntp171
Rp172
(lp173
F-0.45072682564228295
aF-0.544835138960797
aF-0.4507268256422829
aF0.5448351389607972
ababa(F0.3537500000000001
F0.3537500000000001
F0.3437500000000001
F0.3437500000000001
tp174
aF0.3389803636449316
aF1.21608305057073
ag1
(g20
g3
Ntp175
Rp176
(lp177
g1
(g24
g3
Ntp178
Rp179
(lp180
I0
ag1
(g28
g3
Ntp181
Rp182
(lp183
I0
aI0
abag32
abag1
(g33
g3
Ntp184
Rp185
(lp186
F0.0
aF0.0
aF0.0
abababag1
(g2
g3
Ntp187
Rp188
(lp189
I0
ag1
(g7
g3
Ntp190
Rp191
(lp192
g1
(g11
g3
Ntp193
Rp194
(lp195
F8.589749189644483e-18
aF-2.9969176141321775e-50
aF0.14028125
abag1
(g15
g3
Ntp196
Rp197
(lp198
F-3.749399456654644e-33
aF-3.061616997868383e-17
aF-1.2246467991473532e-16
aF-1.0
ababa(F0.3850000000000002
F0.3850000000000002
F0.3850000000000002
F0.3850000000000002
tp199
aF0.3589840483771064
aF1.1875790191235025
ag1
(g20
g3
Ntp200
Rp201
(lp202
g1
(g24
g3
Ntp203
Rp204
(lp205
I0
ag1
(g28
g3
Ntp206
Rp207
(lp208
I0
aI0
abag32
abag1
(g33
g3
Ntp209
Rp210
(lp211
F0.0
aF0.0
aF0.0
abababag1
(g2
g3
Ntp212
Rp213
(lp214
I0
ag1
(g7
g3
Ntp215
Rp216
(lp217
g1
(g11
g3
Ntp218
Rp219
(lp220
F8.58974918964448e-18
aF-2.594612821078484e-34
aF0.14028125
abag1
(g15
g3
Ntp221
Rp222
(lp223
F-2.1648901405887338e-17
aF-2.1648901405887332e-17
aF-0.7071067811865477
aF-0.7071067811865475
ababa(F0.3850000000000002
F0.3850000000000002
F0.3850000000000002
F0.3850000000000002
tp224
aF0.35898404810403484
aF1.1875789761135187
ag1
(g20
g3
Ntp225
Rp226
(lp227
g1
(g24
g3
Ntp228
Rp229
(lp230
I0
ag1
(g28
g3
Ntp231
Rp232
(lp233
I0
aI0
abag32
abag1
(g33
g3
Ntp234
Rp235
(lp236
F0.0
aF0.0
aF0.0
abababag1
(g2
g3
Ntp237
Rp238
(lp239
I0
ag1
(g7
g3
Ntp240
Rp241
(lp242
g1
(g11
g3
Ntp243
Rp244
(lp245
F8.589749189644483e-18
aF-1.4984588070660888e-50
aF0.14028125
abag1
(g15
g3
Ntp246
Rp247
(lp248
F-3.061616997868383e-17
aF1.874699728327322e-33
aF-1.0
aF6.123233995736766e-17
ababa(F0.3850000000000002
F0.3850000000000002
F0.3850000000000002
F0.3850000000000002
tp249
aF0.35898404707259496
aF1.1834335967375524
ag1
(g20
g3
Ntp250
Rp251
(lp252
g1
(g24
g3
Ntp253
Rp254
(lp255
I0
ag1
(g28
g3
Ntp256
Rp257
(lp258
I0
aI0
abag32
abag1
(g33
g3
Ntp259
Rp260
(lp261
F0.0
aF0.0
aF0.0
abababag1
(g2
g3
Ntp262
Rp263
(lp264
I0
ag1
(g7
g3
Ntp265
Rp266
(lp267
g1
(g11
g3
Ntp268
Rp269
(lp270
F8.58974918964448e-18
aF-2.594612821078484e-34
aF0.14028125
abag1
(g15
g3
Ntp271
Rp272
(lp273
F-2.1648901405887332e-17
aF2.1648901405887338e-17
aF-0.7071067811865475
aF0.7071067811865477
ababa(F0.3850000000000002
F0.3850000000000002
F0.3850000000000002
F0.3850000000000002
tp274
aF0.33174654648302293
aF1.1476108585028342
ag1
(g20
g3
Ntp275
Rp276
(lp277
g1
(g24
g3
Ntp278
Rp279
(lp280
I0
ag1
(g28
g3
Ntp281
Rp282
(lp283
I0
aI0
abag32
abag1
(g33
g3
Ntp284
Rp285
(lp286
F0.0
aF0.0
aF0.0
abababag1
(g2
g3
Ntp287
Rp288
(lp289
I0
ag1
(g7
g3
Ntp290
Rp291
(lp292
g1
(g11
g3
Ntp293
Rp294
(lp295
F-0.026944847470819114
aF-0.14124983700712687
aF0.0
abag1
(g15
g3
Ntp296
Rp297
(lp298
F-0.5448351389607972
aF-0.45072682564228284
aF0.5448351389607972
aF-0.4507268256422829
ababa(F0.3537500000000001
F0.3537500000000001
F0.3437500000000001
F0.3437500000000001
tp299
aF0.2669113591642863
aF1.1044730861786527
ag1
(g20
g3
Ntp300
Rp301
(lp302
g1
(g24
g3
Ntp303
Rp304
(lp305
I0
ag1
(g28
g3
Ntp306
Rp307
(lp308
I0
aI0
abag32
abag1
(g33
g3
Ntp309
Rp310
(lp311
F0.0
aF0.0
aF0.0
abababag1
(g2
g3
Ntp312
Rp313
(lp314
I0
ag1
(g7
g3
Ntp315
Rp316
(lp317
g1
(g11
g3
Ntp318
Rp319
(lp320
F0.0453289303623751
aF0.13950810273404532
aF-2.842170943040401e-17
abag1
(g15
g3
Ntp321
Rp322
(lp323
F-0.5720614028176844
aF-0.41562693777745335
aF-0.5720614028176843
aF0.4156269377774534
ababa(F0.3187500000000001
F0.3187500000000001
F0.3550000000000001
F0.3550000000000001
tp324
aF0.36697730805201706
aF1.0421327337303525
ag1
(g20
g3
Ntp325
Rp326
(lp327
g1
(g24
g3
Ntp328
Rp329
(lp330
I0
ag1
(g28
g3
Ntp331
Rp332
(lp333
I0
aI0
abag32
abag1
(g33
g3
Ntp334
Rp335
(lp336
F0.0
aF0.0
aF0.0
abababag1
(g2
g3
Ntp337
Rp338
(lp339
I0
ag1
(g7
g3
Ntp340
Rp341
(lp342
g1
(g11
g3
Ntp343
Rp344
(lp345
F-0.14150035927497745
aF-0.01787565243710879
aF3.748112931134528e-17
abag1
(g15
g3
Ntp346
Rp347
(lp348
F-0.7057114674770558
aF-0.04439960215340356
aF0.7057114674770558
aF-0.04439960215340361
ababa(F0.35500000000000015
F0.35500000000000015
F0.36500000000000016
F0.36500000000000016
tp349
aF0.23879150614541372
aF1.0235270569332686
ag1
(g20
g3
Ntp350
Rp351
(lp352
g1
(g24
g3
Ntp353
Rp354
(lp355
I0
ag1
(g28
g3
Ntp356
Rp357
(lp358
I0
aI0
abag32
abag1
(g33
g3
Ntp359
Rp360
(lp361
F0.0
aF0.0
aF0.0
abababag1
(g2
g3
Ntp362
Rp363
(lp364
I0
ag1
(g7
g3
Ntp365
Rp366
(lp367
g1
(g11
g3
Ntp368
Rp369
(lp370
F-0.1415003592749774
aF0.017875652437109
aF2.842170943040401e-17
abag1
(g15
g3
Ntp371
Rp372
(lp373
F-0.044399602153404216
aF-0.7057114674770557
aF-0.044399602153404
aF0.7057114674770558
ababa(F0.35500000000000015
F0.35500000000000015
F0.36500000000000016
F0.36500000000000016
tp374
aF0.23879150694823148
aF1.02352514010447
ag1
(g20
g3
Ntp375
Rp376
(lp377
g1
(g24
g3
Ntp378
Rp379
(lp380
I0
ag1
(g28
g3
Ntp381
Rp382
(lp383
I0
aI0
abag32
abag1
(g33
g3
Ntp384
Rp385
(lp386
F0.0
aF0.0
aF0.0
abababag1
(g2
g3
Ntp387
Rp388
(lp389
I0
ag1
(g7
g3
Ntp390
Rp391
(lp392
g1
(g11
g3
Ntp393
Rp394
(lp395
F0.04532893036237518
aF-0.13950810273404532
aF3.952393967665557e-18
abag1
(g15
g3
Ntp396
Rp397
(lp398
F-0.41562693777745324
aF-0.5720614028176845
aF0.4156269377774532
aF-0.5720614028176845
ababa(F0.3187500000000001
F0.3187500000000001
F0.3550000000000001
F0.3550000000000001
tp399
aF0.3677306717237338
aF1.0203311115109706
ag1
(g20
g3
Ntp400
Rp401
(lp402
g1
(g24
g3
Ntp403
Rp404
(lp405
I0
ag1
(g28
g3
Ntp406
Rp407
(lp408
I0
aI0
abag32
abag1
(g33
g3
Ntp409
Rp410
(lp411
F0.0
aF0.0
aF0.0
abababag1
(g2
g3
Ntp412
Rp413
(lp414
I0
ag1
(g7
g3
Ntp415
Rp416
(lp417
g1
(g11
g3
Ntp418
Rp419
(lp420
F-0.13704033736537302
aF0.05425810789804021
aF-1.035838081975271e-17
abag1
(g15
g3
Ntp421
Rp422
(lp423
F-0.13249859821121598
aF-0.6945819760633462
aF-0.1324985982112157
aF0.6945819760633462
ababa(F0.3150000000000001
F0.3150000000000001
F0.3612500000000002
F0.3612500000000002
tp424
aF0.3533514280546415
aF0.9161082377149877
ag1
(g20
g3
Ntp425
Rp426
(lp427
g1
(g24
g3
Ntp428
Rp429
(lp430
I0
ag1
(g28
g3
Ntp431
Rp432
(lp433
I0
aI0
abag32
abag1
(g33
g3
Ntp434
Rp435
(lp436
F0.0
aF0.0
aF0.0
abababag1
(g2
g3
Ntp437
Rp438
(lp439
I0
ag1
(g7
g3
Ntp440
Rp441
(lp442
g1
(g11
g3
Ntp443
Rp444
(lp445
F-0.13704033736537313
aF-0.054258107898039976
aF-3.852473895449293e-18
abag1
(g15
g3
Ntp446
Rp447
(lp448
F-0.6945819760633463
aF-0.13249859821121523
aF0.6945819760633463
aF-0.1324985982112153
ababa(F0.3150000000000001
F0.3150000000000001
F0.3612500000000002
F0.3612500000000002
tp449
aF0.3533514306688692
aF0.8970287680572806
ag1
(g20
g3
Ntp450
Rp451
(lp452
g1
(g24
g3
Ntp453
Rp454
(lp455
I0
ag1
(g28
g3
Ntp456
Rp457
(lp458
I0
aI0
abag32
abag1
(g33
g3
Ntp459
Rp460
(lp461
F0.0
aF0.0
aF0.0
abababag1
(g2
g3
Ntp462
Rp463
(lp464
I0
ag1
(g7
g3
Ntp465
Rp466
(lp467
g1
(g11
g3
Ntp468
Rp469
(lp470
F0.12977554239774594
aF0.07134470817400092
aF1.0458300891968975e-17
abag1
(g15
g3
Ntp471
Rp472
(lp473
F-0.6848917213771575
aF-0.17585030562678622
aF-0.6848917213771575
aF0.17585030562678627
ababa(F0.38125000000000014
F0.38125000000000014
F0.3200000000000001
F0.3200000000000001
tp474
aF0.2693717671831138
aF0.8825121634614777
ag1
(g20
g3
Ntp475
Rp476
(lp477
g1
(g24
g3
Ntp478
Rp479
(lp480
I0
ag1
(g28
g3
Ntp481
Rp482
(lp483
I0
aI0
abag32
abag1
(g33
g3
Ntp484
Rp485
(lp486
F0.0
aF0.0
aF0.0
abababag1
(g2
g3
Ntp487
Rp488
(lp489
I0
ag1
(g7
g3
Ntp490
Rp491
(lp492
g1
(g11
g3
Ntp493
Rp494
(lp495
F0.12977554239774605
aF-0.07134470817400065
aF1.0458300891968975e-17
abag1
(g15
g3
Ntp496
Rp497
(lp498
F-0.17585030562678555
aF-0.6848917213771577
aF0.1758503056267855
aF-0.6848917213771577
ababa(F0.38125000000000014
F0.38125000000000014
F0.3200000000000001
F0.3200000000000001
tp499
aF0.2538060704267675
aF0.8742324629383083
ag1
(g20
g3
Ntp500
Rp501
(lp502
g1
(g24
g3
Ntp503
Rp504
(lp505
I0
ag1
(g28
g3
Ntp506
Rp507
(lp508
I0
aI0
abag32
abag1
(g33
g3
Ntp509
Rp510
(lp511
F0.0
aF0.0
aF0.0
abababag1
(g2
g3
Ntp512
Rp513
(lp514
I0
ag1
(g7
g3
Ntp515
Rp516
(lp517
g1
(g11
g3
Ntp518
Rp519
(lp520
F-0.06288893192444742
aF-0.13364578323377002
aF2.842170943040401e-17
abag1
(g15
g3
Ntp521
Rp522
(lp523
F-0.5970300016676451
aF-0.37888676027110224
aF0.5970300016676451
aF-0.3788867602711024
ababa(F0.3712500000000002
F0.3712500000000002
F0.31625000000000014
F0.31625000000000014
tp524
aF0.28352279320379037
aF0.7517580526743616
ag1
(g20
g3
Ntp525
Rp526
(lp527
g1
(g24
g3
Ntp528
Rp529
(lp530
I0
ag1
(g28
g3
Ntp531
Rp532
(lp533
I0
aI0
abag32
abag1
(g33
g3
Ntp534
Rp535
(lp536
F0.0
aF0.0
aF0.0
abababag1
(g2
g3
Ntp537
Rp538
(lp539
I0
ag1
(g7
g3
Ntp540
Rp541
(lp542
g1
(g11
g3
Ntp543
Rp544
(lp545
F0.14071697237771902
aF-0.03612997766966875
aF2.426947531830592e-17
abag1
(g15
g3
Ntp546
Rp547
(lp548
F-0.0886239793613562
aF-0.7015310330143335
aF0.08862397936135613
aF-0.7015310330143337
ababa(F0.35250000000000015
F0.35250000000000015
F0.3300000000000001
F0.3300000000000001
tp549
aF0.09224833393145444
aF0.7337012940834142
ag1
(g20
g3
Ntp550
Rp551
(lp552
g1
(g24
g3
Ntp553
Rp554
(lp555
I0
ag1
(g28
g3
Ntp556
Rp557
(lp558
I0
aI0
abag32
abag1
(g33
g3
Ntp559
Rp560
(lp561
F0.0
aF0.0
aF0.0
abababag1
(g2
g3
Ntp562
Rp563
(lp564
I0
ag1
(g7
g3
Ntp565
Rp566
(lp567
g1
(g11
g3
Ntp568
Rp569
(lp570
F-0.06288893192444733
aF0.13364578323377008
aF5.684341886080802e-17
abag1
(g15
g3
Ntp571
Rp572
(lp573
F-0.3788867602711026
aF-0.5970300016676449
aF-0.3788867602711026
aF0.5970300016676451
ababa(F0.3712500000000002
F0.3712500000000002
F0.31625000000000014
F0.31625000000000014
tp574
aF0.2931377037598366
aF0.7320875367909282
ag1
(g20
g3
Ntp575
Rp576
(lp577
g1
(g24
g3
Ntp578
Rp579
(lp580
I0
ag1
(g28
g3
Ntp581
Rp582
(lp583
I0
aI0
abag32
abag1
(g33
g3
Ntp584
Rp585
(lp586
F0.0
aF0.0
aF0.0
abababag1
(g2
g3
Ntp587
Rp588
(lp589
I0
ag1
(g7
g3
Ntp590
Rp591
(lp592
g1
(g11
g3
Ntp593
Rp594
(lp595
F0.14071697237771894
aF0.03612997766966906
aF2.0117241206207837e-17
abag1
(g15
g3
Ntp596
Rp597
(lp598
F-0.7015310330143334
aF-0.08862397936135685
aF-0.7015310330143335
aF0.08862397936135702
ababa(F0.35250000000000015
F0.35250000000000015
F0.3300000000000001
F0.3300000000000001
tp599
aF0.11639097103600791
aF0.6510981143718343
ag1
(g20
g3
Ntp600
Rp601
(lp602
g1
(g24
g3
Ntp603
Rp604
(lp605
I0
ag1
(g28
g3
Ntp606
Rp607
(lp608
I0
aI0
abag32
abag1
(g33
g3
Ntp609
Rp610
(lp611
F0.0
aF0.0
aF0.0
abababag1
(g2
g3
Ntp612
Rp613
(lp614
I0
ag1
(g7
g3
Ntp615
Rp616
(lp617
g1
(g11
g3
Ntp618
Rp619
(lp620
F0.0797712141024981
aF0.1256993199091125
aF-1.0569323194431491e-17
abag1
(g15
g3
Ntp621
Rp622
(lp623
F-0.6196423958580862
aF-0.34065128981885695
aF-0.6196423958580861
aF0.34065128981885695
ababa(F0.32625000000000015
F0.32625000000000015
F0.3906250000000002
F0.3906250000000002
tp624
aF0.09099854791734538
aF0.45396885793905073
ag1
(g20
g3
Ntp625
Rp626
(lp627
g1
(g24
g3
Ntp628
Rp629
(lp630
I0
ag1
(g28
g3
Ntp631
Rp632
(lp633
I0
aI0
abag32
abag1
(g33
g3
Ntp634
Rp635
(lp636
F0.0
aF0.0
aF0.0
abababag1
(g2
g3
Ntp637
Rp638
(lp639
I0
ag1
(g7
g3
Ntp640
Rp641
(lp642
g1
(g11
g3
Ntp643
Rp644
(lp645
F0.07977121410249825
aF-0.1256993199091124
aF-2.4780177909633492e-17
abag1
(g15
g3
Ntp646
Rp647
(lp648
F-0.3406512898188567
aF-0.6196423958580863
aF0.34065128981885645
aF-0.6196423958580863
ababa(F0.32625000000000015
F0.32625000000000015
F0.3906250000000002
F0.3906250000000002
tp649
aF0.09099854854343706
aF0.4539684830157227
ag1
(g20
g3
Ntp650
Rp651
(lp652
g1
(g24
g3
Ntp653
Rp654
(lp655
I0
ag1
(g28
g3
Ntp656
Rp657
(lp658
I0
aI0
abag32
abag1
(g33
g3
Ntp659
Rp660
(lp661
F0.0
aF0.0
aF0.0
abababag1
(g2
g3
Ntp662
Rp663
(lp664
I0
ag1
(g7
g3
Ntp665
Rp666
(lp667
g1
(g11
g3
Ntp668
Rp669
(lp670
F-0.12056881394294149
aF-0.08759837088071251
aF3.204103649068202e-17
abag1
(g15
g3
Ntp671
Rp672
(lp673
F-0.6724985119639575
aF-0.21850801222441013
aF0.6724985119639575
aF-0.21850801222441027
ababa(F0.34500000000000014
F0.34500000000000014
F0.4025000000000002
F0.4025000000000002
tp674
aF-1.0
aF0.3203996253035839
ag1
(g20
g3
Ntp675
Rp676
(lp677
g1
(g24
g3
Ntp678
Rp679
(lp680
I0
ag1
(g28
g3
Ntp681
Rp682
(lp683
I0
aI0
abag32
abag1
(g33
g3
Ntp684
Rp685
(lp686
F0.0
aF0.0
aF0.0
abababag1
(g2
g3
Ntp687
Rp688
(lp689
I0
ag1
(g7
g3
Ntp690
Rp691
(lp692
g1
(g11
g3
Ntp693
Rp694
(lp695
F-0.12056881394294139
aF0.08759837088071272
aF7.105427357601002e-17
abag1
(g15
g3
Ntp696
Rp697
(lp698
F-0.21850801222441074
aF-0.6724985119639573
aF-0.2185080122244107
aF0.6724985119639575
ababa(F0.34500000000000014
F0.34500000000000014
F0.4025000000000002
F0.4025000000000002
tp699
aF-1.0
aF0.3170450990836177
ag1
(g20
g3
Ntp700
Rp701
(lp702
g1
(g24
g3
Ntp703
Rp704
(lp705
I0
ag1
(g28
g3
Ntp706
Rp707
(lp708
I0
aI0
abag32
abag1
(g33
g3
Ntp709
Rp710
(lp711
F0.0
aF0.0
aF0.0
abababa.