(lp0
ccopy_reg
_reconstructor
p1
(cgraspit_interface.msg._Grasp
Grasp
p2
c__builtin__
object
p3
Ntp4
Rp5
(lp6
I0
ag1
(cgeometry_msgs.msg._Pose
Pose
p7
g3
Ntp8
Rp9
(lp10
g1
(cgeometry_msgs.msg._Point
Point
p11
g3
Ntp12
Rp13
(lp14
F0.005606622169400786
aF-0.14401548445993853
aF0.01326163482666017
abag1
(cgeometry_msgs.msg._Quaternion
Quaternion
p15
g3
Ntp16
Rp17
(lp18
F-0.48950361647962803
aF-0.5102805203546037
aF0.48950361647962803
aF-0.5102805203546039
ababa(F0.0
F0.5450000000000003
F0.10999999999999999
F0.37000000000000016
tp19
aF0.10285065527323199
aF0.10979581789041083
ag1
(cgeometry_msgs.msg._Vector3Stamped
Vector3Stamped
p20
g3
Ntp21
Rp22
(lp23
g1
(cstd_msgs.msg._Header
Header
p24
g3
Ntp25
Rp26
(lp27
I0
ag1
(cgenpy.rostime
Time
p28
g3
Ntp29
Rp30
(lp31
I0
aI0
abaS''
p32
abag1
(cgeometry_msgs.msg._Vector3
Vector3
p33
g3
Ntp34
Rp35
(lp36
F0.0
aF0.0
aF0.0
abababag1
(g2
g3
Ntp37
Rp38
(lp39
I0
ag1
(g7
g3
Ntp40
Rp41
(lp42
g1
(g11
g3
Ntp43
Rp44
(lp45
F0.005587148026675695
aF0.14842080401564678
aF0.013261634826660184
abag1
(g15
g3
Ntp46
Rp47
(lp48
F-0.5102805203546038
aF-0.48950361647962803
aF-0.5102805203546038
aF0.48950361647962815
ababa(F0.0
F0.5400000000000003
F0.07500000000000001
F0.4150000000000002
tp49
aF0.10847275526799201
aF0.10466711395715067
ag1
(g20
g3
Ntp50
Rp51
(lp52
g1
(g24
g3
Ntp53
Rp54
(lp55
I0
ag1
(g28
g3
Ntp56
Rp57
(lp58
I0
aI0
abag32
abag1
(g33
g3
Ntp59
Rp60
(lp61
F0.0
aF0.0
aF0.0
abababag1
(g2
g3
Ntp62
Rp63
(lp64
I0
ag1
(g7
g3
Ntp65
Rp66
(lp67
g1
(g11
g3
Ntp68
Rp69
(lp70
F-0.005013645172119144
aF0.002436832427978516
aF0.2521487846374511
abag1
(g15
g3
Ntp71
Rp72
(lp73
F-5.293986250311636e-17
aF-5.293986250311635e-17
aF-0.7071067811865476
aF-0.7071067811865475
ababa(F0.24062500000000006
F0.24062500000000006
F0.03
F0.03
tp74
aF0.032358209915777494
aF0.023185784527889417
ag1
(g20
g3
Ntp75
Rp76
(lp77
g1
(g24
g3
Ntp78
Rp79
(lp80
I0
ag1
(g28
g3
Ntp81
Rp82
(lp83
I0
aI0
abag32
abag1
(g33
g3
Ntp84
Rp85
(lp86
F0.0
aF0.0
aF0.0
abababag1
(g2
g3
Ntp87
Rp88
(lp89
I0
ag1
(g7
g3
Ntp90
Rp91
(lp92
g1
(g11
g3
Ntp93
Rp94
(lp95
F-0.005013645172119144
aF0.002436832427978516
aF0.2520706596374511
abag1
(g15
g3
Ntp96
Rp97
(lp98
F-7.486827154207402e-17
aF4.584359455084791e-33
aF-1.0
aF6.123233995736766e-17
ababa(F0.23062500000000008
F0.23062500000000008
F0.23062500000000008
F0.23062500000000008
tp99
aF0.06504076372527438
aF0.015387738656121067
ag1
(g20
g3
Ntp100
Rp101
(lp102
g1
(g24
g3
Ntp103
Rp104
(lp105
I0
ag1
(g28
g3
Ntp106
Rp107
(lp108
I0
aI0
abag32
abag1
(g33
g3
Ntp109
Rp110
(lp111
F0.0
aF0.0
aF0.0
abababag1
(g2
g3
Ntp112
Rp113
(lp114
I0
ag1
(g7
g3
Ntp115
Rp116
(lp117
g1
(g11
g3
Ntp118
Rp119
(lp120
F-0.005013645172119144
aF0.002436832427978516
aF0.25199253463745114
abag1
(g15
g3
Ntp121
Rp122
(lp123
F-5.2939862503116355e-17
aF5.293986250311636e-17
aF-0.7071067811865475
aF0.7071067811865476
ababa(F0.03125
F0.03125
F0.2400000000000001
F0.2400000000000001
tp124
aF0.020054496342889312
aF0.01409190710044674
ag1
(g20
g3
Ntp125
Rp126
(lp127
g1
(g24
g3
Ntp128
Rp129
(lp130
I0
ag1
(g28
g3
Ntp131
Rp132
(lp133
I0
aI0
abag32
abag1
(g33
g3
Ntp134
Rp135
(lp136
F0.0
aF0.0
aF0.0
abababag1
(g2
g3
Ntp137
Rp138
(lp139
I0
ag1
(g7
g3
Ntp140
Rp141
(lp142
g1
(g11
g3
Ntp143
Rp144
(lp145
F-0.005013645172119144
aF0.002436832427978516
aF0.2526175346374511
abag1
(g15
g3
Ntp146
Rp147
(lp148
F-9.168718910169582e-33
aF-7.486827154207402e-17
aF-1.2246467991473532e-16
aF-1.0
ababa(F0.22937500000000005
F0.22937500000000005
F0.22812500000000005
F0.22812500000000005
tp149
aF0.0794583581144626
aF0.011829499670415822
ag1
(g20
g3
Ntp150
Rp151
(lp152
g1
(g24
g3
Ntp153
Rp154
(lp155
I0
ag1
(g28
g3
Ntp156
Rp157
(lp158
I0
aI0
abag32
abag1
(g33
g3
Ntp159
Rp160
(lp161
F0.0
aF0.0
aF0.0
abababag1
(g2
g3
Ntp162
Rp163
(lp164
I0
ag1
(g7
g3
Ntp165
Rp166
(lp167
g1
(g11
g3
Ntp168
Rp169
(lp170
F-0.16140204392813234
aF0.018646355647997766
aF0.01326163482666016
abag1
(g15
g3
Ntp171
Rp172
(lp173
F-0.06667547350456704
aF-0.703956235310791
aF-0.06667547350456687
aF0.7039562353107911
ababa(F0.090625
F0.090625
F0.3956250000000002
F0.3956250000000002
tp174
aF0.024929726674953297
aF0.008526234005486206
ag1
(g20
g3
Ntp175
Rp176
(lp177
g1
(g24
g3
Ntp178
Rp179
(lp180
I0
ag1
(g28
g3
Ntp181
Rp182
(lp183
I0
aI0
abag32
abag1
(g33
g3
Ntp184
Rp185
(lp186
F0.0
aF0.0
aF0.0
abababag1
(g2
g3
Ntp187
Rp188
(lp189
I0
ag1
(g7
g3
Ntp190
Rp191
(lp192
g1
(g11
g3
Ntp193
Rp194
(lp195
F-0.1611718366957265
aF-0.013728687715181936
aF0.013261634826660157
abag1
(g15
g3
Ntp196
Rp197
(lp198
F-0.7039562353107911
aF-0.06667547350456604
aF0.7039562353107911
aF-0.06667547350456615
ababa(F0.08499999999999999
F0.08499999999999999
F0.4068750000000002
F0.4068750000000002
tp199
aF0.025257830161531457
aF0.00802097643339163
ag1
(g20
g3
Ntp200
Rp201
(lp202
g1
(g24
g3
Ntp203
Rp204
(lp205
I0
ag1
(g28
g3
Ntp206
Rp207
(lp208
I0
aI0
abag32
abag1
(g33
g3
Ntp209
Rp210
(lp211
F0.0
aF0.0
aF0.0
abababag1
(g2
g3
Ntp212
Rp213
(lp214
I0
ag1
(g7
g3
Ntp215
Rp216
(lp217
g1
(g11
g3
Ntp218
Rp219
(lp220
F0.05989575597164742
aF-0.19599774193796415
aF0.01326163482666018
abag1
(g15
g3
Ntp221
Rp222
(lp223
F-0.4444222975114075
aF-0.5499898376103709
aF0.44442229751140744
aF-0.5499898376103709
ababa(F0.23500000000000007
F0.23500000000000007
F0.0
F0.0
tp224
aF-1.0
aF0.002691421005276281
ag1
(g20
g3
Ntp225
Rp226
(lp227
g1
(g24
g3
Ntp228
Rp229
(lp230
I0
ag1
(g28
g3
Ntp231
Rp232
(lp233
I0
aI0
abag32
abag1
(g33
g3
Ntp234
Rp235
(lp236
F0.0
aF0.0
aF0.0
abababag1
(g2
g3
Ntp237
Rp238
(lp239
I0
ag1
(g7
g3
Ntp240
Rp241
(lp242
g1
(g11
g3
Ntp243
Rp244
(lp245
F0.10958287600921691
aF-0.17860598312623777
aF0.01326163482666017
abag1
(g15
g3
Ntp246
Rp247
(lp248
F-0.3915414654430028
aF-0.5888083566312098
aF0.39154146544300267
aF-0.58880835663121
ababa(F0.45500000000000024
F0.45500000000000024
F0.0
F0.0
tp249
aF-1.0
aF0.0021623774248587164
ag1
(g20
g3
Ntp250
Rp251
(lp252
g1
(g24
g3
Ntp253
Rp254
(lp255
I0
ag1
(g28
g3
Ntp256
Rp257
(lp258
I0
aI0
abag32
abag1
(g33
g3
Ntp259
Rp260
(lp261
F0.0
aF0.0
aF0.0
abababag1
(g2
g3
Ntp262
Rp263
(lp264
I0
ag1
(g7
g3
Ntp265
Rp266
(lp267
g1
(g11
g3
Ntp268
Rp269
(lp270
F0.06005978353875568
aF0.2016352435040422
aF0.013261634826660198
abag1
(g15
g3
Ntp271
Rp272
(lp273
F-0.5499898376103708
aF-0.4444222975114075
aF-0.5499898376103708
aF0.4444222975114076
ababa(F0.24000000000000007
F0.24000000000000007
F0.0
F0.0
tp274
aF-1.0
aF0.0013297563006377886
ag1
(g20
g3
Ntp275
Rp276
(lp277
g1
(g24
g3
Ntp278
Rp279
(lp280
I0
ag1
(g28
g3
Ntp281
Rp282
(lp283
I0
aI0
abag32
abag1
(g33
g3
Ntp284
Rp285
(lp286
F0.0
aF0.0
aF0.0
abababag1
(g2
g3
Ntp287
Rp288
(lp289
I0
ag1
(g7
g3
Ntp290
Rp291
(lp292
g1
(g11
g3
Ntp293
Rp294
(lp295
F-0.04434896187864962
aF-0.20232070741023994
aF0.01326163482666018
abag1
(g15
g3
Ntp296
Rp297
(lp298
F-0.5303500144758517
aF-0.4676845754838018
aF0.5303500144758516
aF-0.4676845754838018
ababa(F0.0
F0.0
F0.2825000000000001
F0.2825000000000001
tp299
aF-1.0
aF0.001145806224889953
ag1
(g20
g3
Ntp300
Rp301
(lp302
g1
(g24
g3
Ntp303
Rp304
(lp305
I0
ag1
(g28
g3
Ntp306
Rp307
(lp308
I0
aI0
abag32
abag1
(g33
g3
Ntp309
Rp310
(lp311
F0.0
aF0.0
aF0.0
abababag1
(g2
g3
Ntp312
Rp313
(lp314
I0
ag1
(g7
g3
Ntp315
Rp316
(lp317
g1
(g11
g3
Ntp318
Rp319
(lp320
F-0.04426101180343367
aF0.20649676954982144
aF0.013261634826660167
abag1
(g15
g3
Ntp321
Rp322
(lp323
F-0.46768457548380205
aF-0.5303500144758517
aF-0.4676845754838018
aF0.5303500144758517
ababa(F0.0
F0.0
F0.2700000000000001
F0.2700000000000001
tp324
aF-1.0
aF0.0010101973537387059
ag1
(g20
g3
Ntp325
Rp326
(lp327
g1
(g24
g3
Ntp328
Rp329
(lp330
I0
ag1
(g28
g3
Ntp331
Rp332
(lp333
I0
aI0
abag32
abag1
(g33
g3
Ntp334
Rp335
(lp336
F0.0
aF0.0
aF0.0
abababag1
(g2
g3
Ntp337
Rp338
(lp339
I0
ag1
(g7
g3
Ntp340
Rp341
(lp342
g1
(g11
g3
Ntp343
Rp344
(lp345
F0.18182161490146526
aF-0.042995943971405194
aF0.013261634826660202
abag1
(g15
g3
Ntp346
Rp347
(lp348
F-0.13025944360616593
aF-0.6950053793686868
aF0.13025944360616581
aF-0.6950053793686868
ababa(F0.4256250000000002
F0.4256250000000002
F0.0
F0.0
tp349
aF-1.0
aF0.0005525050812551397
ag1
(g20
g3
Ntp350
Rp351
(lp352
g1
(g24
g3
Ntp353
Rp354
(lp355
I0
ag1
(g28
g3
Ntp356
Rp357
(lp358
I0
aI0
abag32
abag1
(g33
g3
Ntp359
Rp360
(lp361
F0.0
aF0.0
aF0.0
abababag1
(g2
g3
Ntp362
Rp363
(lp364
I0
ag1
(g7
g3
Ntp365
Rp366
(lp367
g1
(g11
g3
Ntp368
Rp369
(lp370
F0.10973396238552727
aF0.18383987124285192
aF0.013261634826660155
abag1
(g15
g3
Ntp371
Rp372
(lp373
F-0.5888083566312097
aF-0.39154146544300295
aF-0.5888083566312097
aF0.39154146544300295
ababa(F0.47000000000000025
F0.47000000000000025
F0.0
F0.0
tp374
aF-1.0
aF0.00047451658150638473
ag1
(g20
g3
Ntp375
Rp376
(lp377
g1
(g24
g3
Ntp378
Rp379
(lp380
I0
ag1
(g28
g3
Ntp381
Rp382
(lp383
I0
aI0
abag32
abag1
(g33
g3
Ntp384
Rp385
(lp386
F0.0
aF0.0
aF0.0
abababa.