(lp0
ccopy_reg
_reconstructor
p1
(cgraspit_interface.msg._Grasp
Grasp
p2
c__builtin__
object
p3
Ntp4
Rp5
(lp6
I0
ag1
(cgeometry_msgs.msg._Pose
Pose
p7
g3
Ntp8
Rp9
(lp10
g1
(cgeometry_msgs.msg._Point
Point
p11
g3
Ntp12
Rp13
(lp14
F0.006589188671937451
aF-0.14082918590481772
aF-0.02094400024414064
abag1
(cgeometry_msgs.msg._Quaternion
Quaternion
p15
g3
Ntp16
Rp17
(lp18
F-0.4950820754776546
aF-0.5048700214319898
aF0.4950820754776546
aF-0.5048700214319899
ababa(F0.0
F0.8787500000000006
F0.7187500000000004
F0.7187500000000004
tp19
aF0.007236932132347015
aF0.007520255700825879
ag1
(cgeometry_msgs.msg._Vector3Stamped
Vector3Stamped
p20
g3
Ntp21
Rp22
(lp23
g1
(cstd_msgs.msg._Header
Header
p24
g3
Ntp25
Rp26
(lp27
I0
ag1
(cgenpy.rostime
Time
p28
g3
Ntp29
Rp30
(lp31
I0
aI0
abaS''
p32
abag1
(cgeometry_msgs.msg._Vector3
Vector3
p33
g3
Ntp34
Rp35
(lp36
F0.0
aF0.0
aF0.0
abababag1
(g2
g3
Ntp37
Rp38
(lp39
I0
ag1
(g7
g3
Ntp40
Rp41
(lp42
g1
(g11
g3
Ntp43
Rp44
(lp45
F0.006736000828159567
aF0.14405875165414483
aF-0.020944000244140618
abag1
(g15
g3
Ntp46
Rp47
(lp48
F-0.5048700214319899
aF-0.4950820754776545
aF-0.5048700214319899
aF0.49508207547765465
ababa(F0.0
F0.6600000000000004
F0.6837500000000004
F0.6837500000000004
tp49
aF-1.0
aF0.004465987983950284
ag1
(g20
g3
Ntp50
Rp51
(lp52
g1
(g24
g3
Ntp53
Rp54
(lp55
I0
ag1
(g28
g3
Ntp56
Rp57
(lp58
I0
aI0
abag32
abag1
(g33
g3
Ntp59
Rp60
(lp61
F0.0
aF0.0
aF0.0
abababag1
(g2
g3
Ntp62
Rp63
(lp64
I0
ag1
(g7
g3
Ntp65
Rp66
(lp67
g1
(g11
g3
Ntp68
Rp69
(lp70
F-0.00916249847412108
aF-0.0021344985961914064
aF0.18483974075317383
abag1
(g15
g3
Ntp71
Rp72
(lp73
F-3.820778487020115e-33
aF-3.119902399353258e-17
aF-1.2246467991473532e-16
aF-1.0
ababa(F0.3762500000000002
F0.3762500000000002
F0.41875000000000023
F0.41875000000000023
tp74
aF-1.0
aF0.004021856116241176
ag1
(g20
g3
Ntp75
Rp76
(lp77
g1
(g24
g3
Ntp78
Rp79
(lp80
I0
ag1
(g28
g3
Ntp81
Rp82
(lp83
I0
aI0
abag32
abag1
(g33
g3
Ntp84
Rp85
(lp86
F0.0
aF0.0
aF0.0
abababag1
(g2
g3
Ntp87
Rp88
(lp89
I0
ag1
(g7
g3
Ntp90
Rp91
(lp92
g1
(g11
g3
Ntp93
Rp94
(lp95
F-0.00916249847412108
aF-0.0021344985961914064
aF0.18499599075317383
abag1
(g15
g3
Ntp96
Rp97
(lp98
F-3.119902399353258e-17
aF1.9103892435100575e-33
aF-1.0
aF6.123233995736766e-17
ababa(F0.3887500000000002
F0.3887500000000002
F0.34625000000000017
F0.34625000000000017
tp99
aF0.028189840812618744
aF0.003649717706882377
ag1
(g20
g3
Ntp100
Rp101
(lp102
g1
(g24
g3
Ntp103
Rp104
(lp105
I0
ag1
(g28
g3
Ntp106
Rp107
(lp108
I0
aI0
abag32
abag1
(g33
g3
Ntp109
Rp110
(lp111
F0.0
aF0.0
aF0.0
abababag1
(g2
g3
Ntp112
Rp113
(lp114
I0
ag1
(g7
g3
Ntp115
Rp116
(lp117
g1
(g11
g3
Ntp118
Rp119
(lp120
F-0.009162498474121076
aF-0.0021344985961914064
aF0.25812099075317385
abag1
(g15
g3
Ntp121
Rp122
(lp123
F-2.2061041432228686e-17
aF2.2061041432228692e-17
aF-0.7071067811865475
aF0.7071067811865476
ababa(F0.0
F0.0
F0.05
F0.05
tp124
aF-1.0
aF0.0006617882571364572
ag1
(g20
g3
Ntp125
Rp126
(lp127
g1
(g24
g3
Ntp128
Rp129
(lp130
I0
ag1
(g28
g3
Ntp131
Rp132
(lp133
I0
aI0
abag32
abag1
(g33
g3
Ntp134
Rp135
(lp136
F0.0
aF0.0
aF0.0
abababa.