(lp0
ccopy_reg
_reconstructor
p1
(cgraspit_interface.msg._Grasp
Grasp
p2
c__builtin__
object
p3
Ntp4
Rp5
(lp6
I0
ag1
(cgeometry_msgs.msg._Pose
Pose
p7
g3
Ntp8
Rp9
(lp10
g1
(cgeometry_msgs.msg._Point
Point
p11
g3
Ntp12
Rp13
(lp14
F-0.0002650642395019441
aF0.0016374855041503906
aF0.16082342147827147
abag1
(cgeometry_msgs.msg._Quaternion
Quaternion
p15
g3
Ntp16
Rp17
(lp18
F-3.2604605301808955e-17
aF3.260460530180896e-17
aF-0.7071067811865475
aF0.7071067811865476
ababa(F0.07
F0.38000000000000017
F0.0
F0.5125000000000002
tp19
aF0.2548278984978584
aF1.6889021004486522
ag1
(cgeometry_msgs.msg._Vector3Stamped
Vector3Stamped
p20
g3
Ntp21
Rp22
(lp23
g1
(cstd_msgs.msg._Header
Header
p24
g3
Ntp25
Rp26
(lp27
I0
ag1
(cgenpy.rostime
Time
p28
g3
Ntp29
Rp30
(lp31
I0
aI0
abaS''
p32
abag1
(cgeometry_msgs.msg._Vector3
Vector3
p33
g3
Ntp34
Rp35
(lp36
F0.0
aF0.0
aF0.0
abababag1
(g2
g3
Ntp37
Rp38
(lp39
I0
ag1
(g7
g3
Ntp40
Rp41
(lp42
g1
(g11
g3
Ntp43
Rp44
(lp45
F-0.0002650642395019441
aF0.0016374855041503906
aF0.16082342147827147
abag1
(g15
g3
Ntp46
Rp47
(lp48
F-3.260460530180896e-17
aF-3.2604605301808955e-17
aF-0.7071067811865476
aF-0.7071067811865475
ababa(F0.0
F0.5100000000000002
F0.07
F0.38000000000000017
tp49
aF0.35839306479722244
aF1.6818938279298636
ag1
(g20
g3
Ntp50
Rp51
(lp52
g1
(g24
g3
Ntp53
Rp54
(lp55
I0
ag1
(g28
g3
Ntp56
Rp57
(lp58
I0
aI0
abag32
abag1
(g33
g3
Ntp59
Rp60
(lp61
F0.0
aF0.0
aF0.0
abababag1
(g2
g3
Ntp62
Rp63
(lp64
I0
ag1
(g7
g3
Ntp65
Rp66
(lp67
g1
(g11
g3
Ntp68
Rp69
(lp70
F-0.0002650642395019441
aF0.0016374855041503906
aF0.16082342147827147
abag1
(g15
g3
Ntp71
Rp72
(lp73
F-5.646831084453869e-33
aF-4.6109875013639956e-17
aF-1.2246467991473532e-16
aF-1.0
ababa(F0.0
F0.5025000000000002
F0.04
F0.5025000000000002
tp74
aF0.35528479092555554
aF1.5928961902742704
ag1
(g20
g3
Ntp75
Rp76
(lp77
g1
(g24
g3
Ntp78
Rp79
(lp80
I0
ag1
(g28
g3
Ntp81
Rp82
(lp83
I0
aI0
abag32
abag1
(g33
g3
Ntp84
Rp85
(lp86
F0.0
aF0.0
aF0.0
abababag1
(g2
g3
Ntp87
Rp88
(lp89
I0
ag1
(g7
g3
Ntp90
Rp91
(lp92
g1
(g11
g3
Ntp93
Rp94
(lp95
F-0.0002650642395019441
aF0.0016374855041503906
aF0.16082342147827147
abag1
(g15
g3
Ntp96
Rp97
(lp98
F-4.6109875013639956e-17
aF2.8234155422269346e-33
aF-1.0
aF6.123233995736766e-17
ababa(F0.04
F0.5125000000000002
F0.0
F0.5025000000000002
tp99
aF0.38597944672530077
aF1.59268115961853
ag1
(g20
g3
Ntp100
Rp101
(lp102
g1
(g24
g3
Ntp103
Rp104
(lp105
I0
ag1
(g28
g3
Ntp106
Rp107
(lp108
I0
aI0
abag32
abag1
(g33
g3
Ntp109
Rp110
(lp111
F0.0
aF0.0
aF0.0
abababag1
(g2
g3
Ntp112
Rp113
(lp114
I0
ag1
(g7
g3
Ntp115
Rp116
(lp117
g1
(g11
g3
Ntp118
Rp119
(lp120
F0.04504151900541141
aF0.14106325637098424
aF-0.008353015899658204
abag1
(g15
g3
Ntp121
Rp122
(lp123
F-0.572022962433744
aF-0.41567984128235486
aF-0.5720229624337437
aF0.41567984128235497
ababa(F0.3412500000000001
F0.3412500000000001
F0.3387500000000001
F0.3387500000000001
tp124
aF0.2873489618516529
aF0.5112895666693464
ag1
(g20
g3
Ntp125
Rp126
(lp127
g1
(g24
g3
Ntp128
Rp129
(lp130
I0
ag1
(g28
g3
Ntp131
Rp132
(lp133
I0
aI0
abag32
abag1
(g33
g3
Ntp134
Rp135
(lp136
F0.0
aF0.0
aF0.0
abababag1
(g2
g3
Ntp137
Rp138
(lp139
I0
ag1
(g7
g3
Ntp140
Rp141
(lp142
g1
(g11
g3
Ntp143
Rp144
(lp145
F-0.11959197862936922
aF-0.08505054147637099
aF-0.008353015899658174
abag1
(g15
g3
Ntp146
Rp147
(lp148
F-0.6724657956598197
aF-0.218608677018104
aF0.6724657956598197
aF-0.21860867701810408
ababa(F0.33750000000000013
F0.33750000000000013
F0.34000000000000014
F0.34000000000000014
tp149
aF0.26440633946016046
aF0.42587620790960395
ag1
(g20
g3
Ntp150
Rp151
(lp152
g1
(g24
g3
Ntp153
Rp154
(lp155
I0
ag1
(g28
g3
Ntp156
Rp157
(lp158
I0
aI0
abag32
abag1
(g33
g3
Ntp159
Rp160
(lp161
F0.0
aF0.0
aF0.0
abababag1
(g2
g3
Ntp162
Rp163
(lp164
I0
ag1
(g7
g3
Ntp165
Rp166
(lp167
g1
(g11
g3
Ntp168
Rp169
(lp170
F0.07821559791213534
aF0.1252911084628177
aF-0.008353015899658195
abag1
(g15
g3
Ntp171
Rp172
(lp173
F-0.6195938869024952
aF-0.3407395124036222
aF-0.619593886902495
aF0.3407395124036224
ababa(F0.36375000000000013
F0.36375000000000013
F0.34750000000000014
F0.34750000000000014
tp174
aF0.2656636041886775
aF0.42080867501859404
ag1
(g20
g3
Ntp175
Rp176
(lp177
g1
(g24
g3
Ntp178
Rp179
(lp180
I0
ag1
(g28
g3
Ntp181
Rp182
(lp183
I0
aI0
abag32
abag1
(g33
g3
Ntp184
Rp185
(lp186
F0.0
aF0.0
aF0.0
abababag1
(g2
g3
Ntp187
Rp188
(lp189
I0
ag1
(g7
g3
Ntp190
Rp191
(lp192
g1
(g11
g3
Ntp193
Rp194
(lp195
F0.008950560054252583
aF0.14810151106605812
aF-0.008353015899658188
abag1
(g15
g3
Ntp196
Rp197
(lp198
F-0.5154491148120453
aF-0.4840580647396333
aF-0.5154491148120453
aF0.4840580647396335
ababa(F0.3387500000000001
F0.3387500000000001
F0.3337500000000001
F0.3337500000000001
tp199
aF0.2764863582240059
aF0.38057217767457213
ag1
(g20
g3
Ntp200
Rp201
(lp202
g1
(g24
g3
Ntp203
Rp204
(lp205
I0
ag1
(g28
g3
Ntp206
Rp207
(lp208
I0
aI0
abag32
abag1
(g33
g3
Ntp209
Rp210
(lp211
F0.0
aF0.0
aF0.0
abababag1
(g2
g3
Ntp212
Rp213
(lp214
I0
ag1
(g7
g3
Ntp215
Rp216
(lp217
g1
(g11
g3
Ntp218
Rp219
(lp220
F0.10634052921757942
aF0.10173688401756448
aF-0.008353015899658204
abag1
(g15
g3
Ntp221
Rp222
(lp223
F-0.6574103636548336
aF-0.2604066315576846
aF-0.6574103636548334
aF0.2604066315576846
ababa(F0.3800000000000002
F0.3800000000000002
F0.3562500000000002
F0.3562500000000002
tp224
aF0.2675879106620617
aF0.3080812897400665
ag1
(g20
g3
Ntp225
Rp226
(lp227
g1
(g24
g3
Ntp228
Rp229
(lp230
I0
ag1
(g28
g3
Ntp231
Rp232
(lp233
I0
aI0
abag32
abag1
(g33
g3
Ntp234
Rp235
(lp236
F0.0
aF0.0
aF0.0
abababag1
(g2
g3
Ntp237
Rp238
(lp239
I0
ag1
(g7
g3
Ntp240
Rp241
(lp242
g1
(g11
g3
Ntp243
Rp244
(lp245
F-0.14622360030170817
aF-0.01679961911177364
aF-0.008353015899658168
abag1
(g15
g3
Ntp246
Rp247
(lp248
F-0.7057097286634931
aF-0.04442723117299803
aF0.7057097286634931
aF-0.04442723117299814
ababa(F0.33500000000000013
F0.33500000000000013
F0.35000000000000014
F0.35000000000000014
tp249
aF0.1208096446385638
aF0.29983417220583053
ag1
(g20
g3
Ntp250
Rp251
(lp252
g1
(g24
g3
Ntp253
Rp254
(lp255
I0
ag1
(g28
g3
Ntp256
Rp257
(lp258
I0
aI0
abag32
abag1
(g33
g3
Ntp259
Rp260
(lp261
F0.0
aF0.0
aF0.0
abababag1
(g2
g3
Ntp262
Rp263
(lp264
I0
ag1
(g7
g3
Ntp265
Rp266
(lp267
g1
(g11
g3
Ntp268
Rp269
(lp270
F0.14192711551543113
aF-0.034867746317591146
aF-0.008353015899658147
abag1
(g15
g3
Ntp271
Rp272
(lp273
F-0.08867718258302233
aF-0.7015243098347607
aF0.08867718258302217
aF-0.7015243098347608
ababa(F0.35000000000000014
F0.35000000000000014
F0.3337500000000001
F0.3337500000000001
tp274
aF0.11633029434014315
aF0.2996576971017216
ag1
(g20
g3
Ntp275
Rp276
(lp277
g1
(g24
g3
Ntp278
Rp279
(lp280
I0
ag1
(g28
g3
Ntp281
Rp282
(lp283
I0
aI0
abag32
abag1
(g33
g3
Ntp284
Rp285
(lp286
F0.0
aF0.0
aF0.0
abababag1
(g2
g3
Ntp287
Rp288
(lp289
I0
ag1
(g7
g3
Ntp290
Rp291
(lp292
g1
(g11
g3
Ntp293
Rp294
(lp295
F-0.13661231042977232
aF0.05561593961639123
aF-0.008353015899658188
abag1
(g15
g3
Ntp296
Rp297
(lp298
F-0.13257344450909797
aF-0.6945676941889776
aF-0.13257344450909792
aF0.6945676941889778
ababa(F0.3587500000000001
F0.3587500000000001
F0.35500000000000015
F0.35500000000000015
tp299
aF0.017564433152030816
aF0.24757526582041559
ag1
(g20
g3
Ntp300
Rp301
(lp302
g1
(g24
g3
Ntp303
Rp304
(lp305
I0
ag1
(g28
g3
Ntp306
Rp307
(lp308
I0
aI0
abag32
abag1
(g33
g3
Ntp309
Rp310
(lp311
F0.0
aF0.0
aF0.0
abababag1
(g2
g3
Ntp312
Rp313
(lp314
I0
ag1
(g7
g3
Ntp315
Rp316
(lp317
g1
(g11
g3
Ntp318
Rp319
(lp320
F-0.09412706705354817
aF-0.11181151311411709
aF-0.008353015899658218
abag1
(g15
g3
Ntp321
Rp322
(lp323
F-0.6397627964921255
aF-0.30117032427610646
aF0.6397627964921255
aF-0.3011703242761065
ababa(F0.3487500000000001
F0.3487500000000001
F0.3412500000000001
F0.3412500000000001
tp324
aF0.05576401523743354
aF0.23925777822409883
ag1
(g20
g3
Ntp325
Rp326
(lp327
g1
(g24
g3
Ntp328
Rp329
(lp330
I0
ag1
(g28
g3
Ntp331
Rp332
(lp333
I0
aI0
abag32
abag1
(g33
g3
Ntp334
Rp335
(lp336
F0.0
aF0.0
aF0.0
abababag1
(g2
g3
Ntp337
Rp338
(lp339
I0
ag1
(g7
g3
Ntp340
Rp341
(lp342
g1
(g11
g3
Ntp343
Rp344
(lp345
F-0.14575855113708883
aF0.020015803752718952
aF-0.008353015899658204
abag1
(g15
g3
Ntp346
Rp347
(lp348
F-0.04442723117299863
aF-0.705709728663493
aF-0.044427231172998516
aF0.705709728663493
ababa(F0.35750000000000015
F0.35750000000000015
F0.34000000000000014
F0.34000000000000014
tp349
aF0.07707390990780161
aF0.2308912897124437
ag1
(g20
g3
Ntp350
Rp351
(lp352
g1
(g24
g3
Ntp353
Rp354
(lp355
I0
ag1
(g28
g3
Ntp356
Rp357
(lp358
I0
aI0
abag32
abag1
(g33
g3
Ntp359
Rp360
(lp361
F0.0
aF0.0
aF0.0
abababag1
(g2
g3
Ntp362
Rp363
(lp364
I0
ag1
(g7
g3
Ntp365
Rp366
(lp367
g1
(g11
g3
Ntp368
Rp369
(lp370
F0.12878540003674
aF-0.06930193915419922
aF-0.008353015899658204
abag1
(g15
g3
Ntp371
Rp372
(lp373
F-0.1759413277974514
aF-0.6848683444085218
aF0.1759413277974513
aF-0.684868344408522
ababa(F0.34250000000000014
F0.34250000000000014
F0.33250000000000013
F0.33250000000000013
tp374
aF0.028451798657530118
aF0.22136533923891108
ag1
(g20
g3
Ntp375
Rp376
(lp377
g1
(g24
g3
Ntp378
Rp379
(lp380
I0
ag1
(g28
g3
Ntp381
Rp382
(lp383
I0
aI0
abag32
abag1
(g33
g3
Ntp384
Rp385
(lp386
F0.0
aF0.0
aF0.0
abababag1
(g2
g3
Ntp387
Rp388
(lp389
I0
ag1
(g7
g3
Ntp390
Rp391
(lp392
g1
(g11
g3
Ntp393
Rp394
(lp395
F0.14154877745716682
aF0.03804551545197088
aF-0.008353015899658181
abag1
(g15
g3
Ntp396
Rp397
(lp398
F-0.7015243098347607
aF-0.08867718258302289
aF-0.7015243098347607
aF0.088677182583023
ababa(F0.3412500000000001
F0.3412500000000001
F0.3562500000000001
F0.3562500000000001
tp399
aF-1.0
aF0.21180676965755824
ag1
(g20
g3
Ntp400
Rp401
(lp402
g1
(g24
g3
Ntp403
Rp404
(lp405
I0
ag1
(g28
g3
Ntp406
Rp407
(lp408
I0
aI0
abag32
abag1
(g33
g3
Ntp409
Rp410
(lp411
F0.0
aF0.0
aF0.0
abababag1
(g2
g3
Ntp412
Rp413
(lp414
I0
ag1
(g7
g3
Ntp415
Rp416
(lp417
g1
(g11
g3
Ntp418
Rp419
(lp420
F0.1070806695366827
aF-0.0991573887088123
aF-0.008353015899658195
abag1
(g15
g3
Ntp421
Rp422
(lp423
F-0.2604066315576842
aF-0.6574103636548336
aF0.2604066315576841
aF-0.6574103636548337
ababa(F0.3412500000000001
F0.3412500000000001
F0.3412500000000001
F0.3412500000000001
tp424
aF0.07099423645641717
aF0.20320278058992072
ag1
(g20
g3
Ntp425
Rp426
(lp427
g1
(g24
g3
Ntp428
Rp429
(lp430
I0
ag1
(g28
g3
Ntp431
Rp432
(lp433
I0
aI0
abag32
abag1
(g33
g3
Ntp434
Rp435
(lp436
F0.0
aF0.0
aF0.0
abababag1
(g2
g3
Ntp437
Rp438
(lp439
I0
ag1
(g7
g3
Ntp440
Rp441
(lp442
g1
(g11
g3
Ntp443
Rp444
(lp445
F0.1278270796966085
aF0.07204973733676787
aF-0.008353015899658188
abag1
(g15
g3
Ntp446
Rp447
(lp448
F-0.6848683444085217
aF-0.17594132779745192
aF-0.6848683444085217
aF0.17594132779745214
ababa(F0.36000000000000015
F0.36000000000000015
F0.36000000000000015
F0.36000000000000015
tp449
aF0.07114995420749137
aF0.1991960508982633
ag1
(g20
g3
Ntp450
Rp451
(lp452
g1
(g24
g3
Ntp453
Rp454
(lp455
I0
ag1
(g28
g3
Ntp456
Rp457
(lp458
I0
aI0
abag32
abag1
(g33
g3
Ntp459
Rp460
(lp461
F0.0
aF0.0
aF0.0
abababag1
(g2
g3
Ntp462
Rp463
(lp464
I0
ag1
(g7
g3
Ntp465
Rp466
(lp467
g1
(g11
g3
Ntp468
Rp469
(lp470
F-0.06282518490431521
aF0.13457179346788553
aF-0.008353015899658174
abag1
(g15
g3
Ntp471
Rp472
(lp473
F-0.3789591406257039
aF-0.5969840615428756
aF-0.37895914062570385
aF0.5969840615428758
ababa(F0.34000000000000014
F0.34000000000000014
F0.33750000000000013
F0.33750000000000013
tp474
aF0.02185644775921465
aF0.19761513004513334
ag1
(g20
g3
Ntp475
Rp476
(lp477
g1
(g24
g3
Ntp478
Rp479
(lp480
I0
ag1
(g28
g3
Ntp481
Rp482
(lp483
I0
aI0
abag32
abag1
(g33
g3
Ntp484
Rp485
(lp486
F0.0
aF0.0
aF0.0
abababag1
(g2
g3
Ntp487
Rp488
(lp489
I0
ag1
(g7
g3
Ntp490
Rp491
(lp492
g1
(g11
g3
Ntp493
Rp494
(lp495
F0.0450415190054115
aF-0.13778828536268345
aF-0.008353015899658211
abag1
(g15
g3
Ntp496
Rp497
(lp498
F-0.4156798412823547
aF-0.5720229624337441
aF0.41567984128235447
aF-0.5720229624337441
ababa(F0.35000000000000014
F0.35000000000000014
F0.35250000000000015
F0.35250000000000015
tp499
aF0.1480480784778303
aF0.15496596744296434
ag1
(g20
g3
Ntp500
Rp501
(lp502
g1
(g24
g3
Ntp503
Rp504
(lp505
I0
ag1
(g28
g3
Ntp506
Rp507
(lp508
I0
aI0
abag32
abag1
(g33
g3
Ntp509
Rp510
(lp511
F0.0
aF0.0
aF0.0
abababag1
(g2
g3
Ntp512
Rp513
(lp514
I0
ag1
(g7
g3
Ntp515
Rp516
(lp517
g1
(g11
g3
Ntp518
Rp519
(lp520
F-0.027796090022987212
aF0.1459463689509328
aF-0.008353015899658181
abag1
(g15
g3
Ntp521
Rp522
(lp523
F-0.45075838082459996
aF-0.5448090327044742
aF-0.45075838082459996
aF0.5448090327044743
ababa(F0.33250000000000013
F0.33250000000000013
F0.33250000000000013
F0.33250000000000013
tp524
aF0.00899727393434768
aF0.15151776786265628
ag1
(g20
g3
Ntp525
Rp526
(lp527
g1
(g24
g3
Ntp528
Rp529
(lp530
I0
ag1
(g28
g3
Ntp531
Rp532
(lp533
I0
aI0
abag32
abag1
(g33
g3
Ntp534
Rp535
(lp536
F0.0
aF0.0
aF0.0
abababag1
(g2
g3
Ntp537
Rp538
(lp539
I0
ag1
(g7
g3
Ntp540
Rp541
(lp542
g1
(g11
g3
Ntp543
Rp544
(lp545
F-0.09392794650882877
aF0.11484563716131879
aF-0.008353015899658174
abag1
(g15
g3
Ntp546
Rp547
(lp548
F-0.3011703242761068
aF-0.6397627964921254
aF-0.3011703242761068
aF0.6397627964921255
ababa(F0.34750000000000014
F0.34750000000000014
F0.3587500000000002
F0.3587500000000002
tp549
aF0.0380290675717669
aF0.1290131311161699
ag1
(g20
g3
Ntp550
Rp551
(lp552
g1
(g24
g3
Ntp553
Rp554
(lp555
I0
ag1
(g28
g3
Ntp556
Rp557
(lp558
I0
aI0
abag32
abag1
(g33
g3
Ntp559
Rp560
(lp561
F0.0
aF0.0
aF0.0
abababag1
(g2
g3
Ntp562
Rp563
(lp564
I0
ag1
(g7
g3
Ntp565
Rp566
(lp567
g1
(g11
g3
Ntp568
Rp569
(lp570
F0.07871771010471154
aF-0.12280783790043469
aF-0.008353015899658147
abag1
(g15
g3
Ntp571
Rp572
(lp573
F-0.34073951240362194
aF-0.6195938869024952
aF0.3407395124036219
aF-0.6195938869024954
ababa(F0.3387500000000001
F0.3387500000000001
F0.3462500000000001
F0.3462500000000001
tp574
aF0.0237687979420457
aF0.12787396801010914
ag1
(g20
g3
Ntp575
Rp576
(lp577
g1
(g24
g3
Ntp578
Rp579
(lp580
I0
ag1
(g28
g3
Ntp581
Rp582
(lp583
I0
aI0
abag32
abag1
(g33
g3
Ntp584
Rp585
(lp586
F0.0
aF0.0
aF0.0
abababag1
(g2
g3
Ntp587
Rp588
(lp589
I0
ag1
(g7
g3
Ntp590
Rp591
(lp592
g1
(g11
g3
Ntp593
Rp594
(lp595
F-0.1375565340746296
aF-0.052715048611722694
aF-0.008353015899658154
abag1
(g15
g3
Ntp596
Rp597
(lp598
F-0.6945676941889778
aF-0.1325734445090973
aF0.6945676941889778
aF-0.13257344450909747
ababa(F0.3300000000000001
F0.3300000000000001
F0.34000000000000014
F0.34000000000000014
tp599
aF0.011319622792409525
aF0.1239673475471843
ag1
(g20
g3
Ntp600
Rp601
(lp602
g1
(g24
g3
Ntp603
Rp604
(lp605
I0
ag1
(g28
g3
Ntp606
Rp607
(lp608
I0
aI0
abag32
abag1
(g33
g3
Ntp609
Rp610
(lp611
F0.0
aF0.0
aF0.0
abababag1
(g2
g3
Ntp612
Rp613
(lp614
I0
ag1
(g7
g3
Ntp615
Rp616
(lp617
g1
(g11
g3
Ntp618
Rp619
(lp620
F-0.11896007160958035
aF0.08786611605364349
aF-0.008353015899658174
abag1
(g15
g3
Ntp621
Rp622
(lp623
F-0.21860867701810477
aF-0.6724657956598196
aF-0.21860867701810452
aF0.6724657956598195
ababa(F0.35500000000000015
F0.35500000000000015
F0.36875000000000013
F0.36875000000000013
tp624
aF-1.0
aF0.11382169556107943
ag1
(g20
g3
Ntp625
Rp626
(lp627
g1
(g24
g3
Ntp628
Rp629
(lp630
I0
ag1
(g28
g3
Ntp631
Rp632
(lp633
I0
aI0
abag32
abag1
(g33
g3
Ntp634
Rp635
(lp636
F0.0
aF0.0
aF0.0
abababag1
(g2
g3
Ntp637
Rp638
(lp639
I0
ag1
(g7
g3
Ntp640
Rp641
(lp642
g1
(g11
g3
Ntp643
Rp644
(lp645
F0.008896633276263307
aF-0.14396885871061219
aF-0.008353015899658204
abag1
(g15
g3
Ntp646
Rp647
(lp648
F-0.4840580647396334
aF-0.5154491148120453
aF0.48405806473963325
aF-0.5154491148120453
ababa(F0.36000000000000015
F0.36000000000000015
F0.36000000000000015
F0.36000000000000015
tp649
aF0.11075338257214459
aF0.10468913228704203
ag1
(g20
g3
Ntp650
Rp651
(lp652
g1
(g24
g3
Ntp653
Rp654
(lp655
I0
ag1
(g28
g3
Ntp656
Rp657
(lp658
I0
aI0
abag32
abag1
(g33
g3
Ntp659
Rp660
(lp661
F0.0
aF0.0
aF0.0
abababag1
(g2
g3
Ntp662
Rp663
(lp664
I0
ag1
(g7
g3
Ntp665
Rp666
(lp667
g1
(g11
g3
Ntp668
Rp669
(lp670
F-0.062924925500943
aF-0.13150891549108112
aF-0.008353015899658174
abag1
(g15
g3
Ntp671
Rp672
(lp673
F-0.5969840615428759
aF-0.37895914062570357
aF0.5969840615428759
aF-0.3789591406257038
ababa(F0.3500000000000002
F0.3500000000000002
F0.34250000000000014
F0.34250000000000014
tp674
aF0.014438430071017737
aF0.10025428187030737
ag1
(g20
g3
Ntp675
Rp676
(lp677
g1
(g24
g3
Ntp678
Rp679
(lp680
I0
ag1
(g28
g3
Ntp681
Rp682
(lp683
I0
aI0
abag32
abag1
(g33
g3
Ntp684
Rp685
(lp686
F0.0
aF0.0
aF0.0
abababag1
(g2
g3
Ntp687
Rp688
(lp689
I0
ag1
(g7
g3
Ntp690
Rp691
(lp692
g1
(g11
g3
Ntp693
Rp694
(lp695
F-0.02764978726637353
aF-0.14190396907563047
aF-0.008353015899658204
abag1
(g15
g3
Ntp696
Rp697
(lp698
F-0.5448090327044743
aF-0.45075838082459985
aF0.5448090327044743
aF-0.45075838082459996
ababa(F0.3587500000000001
F0.3587500000000001
F0.35500000000000015
F0.35500000000000015
tp699
aF-1.0
aF0.07648859981978942
ag1
(g20
g3
Ntp700
Rp701
(lp702
g1
(g24
g3
Ntp703
Rp704
(lp705
I0
ag1
(g28
g3
Ntp706
Rp707
(lp708
I0
aI0
abag32
abag1
(g33
g3
Ntp709
Rp710
(lp711
F0.0
aF0.0
aF0.0
abababa.