(lp0
ccopy_reg
_reconstructor
p1
(cgraspit_interface.msg._Grasp
Grasp
p2
c__builtin__
object
p3
Ntp4
Rp5
(lp6
I0
ag1
(cgeometry_msgs.msg._Pose
Pose
p7
g3
Ntp8
Rp9
(lp10
g1
(cgeometry_msgs.msg._Point
Point
p11
g3
Ntp12
Rp13
(lp14
F0.0008699779510498084
aF-0.0014483299255371093
aF0.21584747314453126
abag1
(cgeometry_msgs.msg._Quaternion
Quaternion
p15
g3
Ntp16
Rp17
(lp18
F-1.089307954042131e-16
aF6.67008749601724e-33
aF-1.0
aF6.123233995736766e-17
ababa(F0.045
F0.11999999999999997
F0.0
F0.19750000000000004
tp19
aF0.21209741441458807
aF0.6544888632383945
ag1
(cgeometry_msgs.msg._Vector3Stamped
Vector3Stamped
p20
g3
Ntp21
Rp22
(lp23
g1
(cstd_msgs.msg._Header
Header
p24
g3
Ntp25
Rp26
(lp27
I0
ag1
(cgenpy.rostime
Time
p28
g3
Ntp29
Rp30
(lp31
I0
aI0
abaS''
p32
abag1
(cgeometry_msgs.msg._Vector3
Vector3
p33
g3
Ntp34
Rp35
(lp36
F0.0
aF0.0
aF0.0
abababag1
(g2
g3
Ntp37
Rp38
(lp39
I0
ag1
(g7
g3
Ntp40
Rp41
(lp42
g1
(g11
g3
Ntp43
Rp44
(lp45
F0.0008699779510498085
aF-0.0014483299255371093
aF0.21615997314453125
abag1
(g15
g3
Ntp46
Rp47
(lp48
F-1.334017499203448e-32
aF-1.089307954042131e-16
aF-1.2246467991473532e-16
aF-1.0
ababa(F0.0
F0.19250000000000003
F0.05
F0.11499999999999999
tp49
aF0.20796762630082172
aF0.5625204060422846
ag1
(g20
g3
Ntp50
Rp51
(lp52
g1
(g24
g3
Ntp53
Rp54
(lp55
I0
ag1
(g28
g3
Ntp56
Rp57
(lp58
I0
aI0
abag32
abag1
(g33
g3
Ntp59
Rp60
(lp61
F0.0
aF0.0
aF0.0
abababag1
(g2
g3
Ntp62
Rp63
(lp64
I0
ag1
(g7
g3
Ntp65
Rp66
(lp67
g1
(g11
g3
Ntp68
Rp69
(lp70
F0.0008699779510498048
aF-0.0014483299255371093
aF0.19811309814453126
abag1
(g15
g3
Ntp71
Rp72
(lp73
F-7.70257041103635e-17
aF-7.702570411036348e-17
aF-0.7071067811865476
aF-0.7071067811865475
ababa(F0.2662500000000001
F0.2662500000000001
F0.2793750000000001
F0.2793750000000001
tp74
aF0.06359425193708244
aF0.05086874012300432
ag1
(g20
g3
Ntp75
Rp76
(lp77
g1
(g24
g3
Ntp78
Rp79
(lp80
I0
ag1
(g28
g3
Ntp81
Rp82
(lp83
I0
aI0
abag32
abag1
(g33
g3
Ntp84
Rp85
(lp86
F0.0
aF0.0
aF0.0
abababag1
(g2
g3
Ntp87
Rp88
(lp89
I0
ag1
(g7
g3
Ntp90
Rp91
(lp92
g1
(g11
g3
Ntp93
Rp94
(lp95
F0.0008699779510498048
aF-0.0014483299255371093
aF0.19819122314453125
abag1
(g15
g3
Ntp96
Rp97
(lp98
F-7.702570411036348e-17
aF7.70257041103635e-17
aF-0.7071067811865475
aF0.7071067811865476
ababa(F0.27812500000000007
F0.27812500000000007
F0.26750000000000007
F0.26750000000000007
tp99
aF0.034431644866540954
aF0.03615148778077781
ag1
(g20
g3
Ntp100
Rp101
(lp102
g1
(g24
g3
Ntp103
Rp104
(lp105
I0
ag1
(g28
g3
Ntp106
Rp107
(lp108
I0
aI0
abag32
abag1
(g33
g3
Ntp109
Rp110
(lp111
F0.0
aF0.0
aF0.0
abababag1
(g2
g3
Ntp112
Rp113
(lp114
I0
ag1
(g7
g3
Ntp115
Rp116
(lp117
g1
(g11
g3
Ntp118
Rp119
(lp120
F0.00992904373844025
aF0.15934101399909767
aF-0.004367019653320265
abag1
(g15
g3
Ntp121
Rp122
(lp123
F-0.5289155948593011
aF-0.46930618311996675
aF-0.5289155948593008
aF0.46930618311996686
ababa(F0.16875
F0.16875
F0.38312500000000016
F0.38312500000000016
tp124
aF0.043422957306067586
aF0.03273589120435926
ag1
(g20
g3
Ntp125
Rp126
(lp127
g1
(g24
g3
Ntp128
Rp129
(lp130
I0
ag1
(g28
g3
Ntp131
Rp132
(lp133
I0
aI0
abag32
abag1
(g33
g3
Ntp134
Rp135
(lp136
F0.0
aF0.0
aF0.0
abababag1
(g2
g3
Ntp137
Rp138
(lp139
I0
ag1
(g7
g3
Ntp140
Rp141
(lp142
g1
(g11
g3
Ntp143
Rp144
(lp145
F0.010114991903973835
aF-0.16378906984402214
aF-0.004367019653320331
abag1
(g15
g3
Ntp146
Rp147
(lp148
F-0.46930618311996675
aF-0.5289155948593012
aF0.46930618311996664
aF-0.5289155948593012
ababa(F0.15437499999999998
F0.15437499999999998
F0.3931250000000002
F0.3931250000000002
tp149
aF0.011393376363008613
aF0.03051983882756121
ag1
(g20
g3
Ntp150
Rp151
(lp152
g1
(g24
g3
Ntp153
Rp154
(lp155
I0
ag1
(g28
g3
Ntp156
Rp157
(lp158
I0
aI0
abag32
abag1
(g33
g3
Ntp159
Rp160
(lp161
F0.0
aF0.0
aF0.0
abababag1
(g2
g3
Ntp162
Rp163
(lp164
I0
ag1
(g7
g3
Ntp165
Rp166
(lp167
g1
(g11
g3
Ntp168
Rp169
(lp170
F-0.19490900906161296
aF-0.07356540442949482
aF-0.004367019653320293
abag1
(g15
g3
Ntp171
Rp172
(lp173
F-0.7033988154401564
aF-0.07231947481408398
aF0.7033988154401564
aF-0.07231947481408402
ababa(F0.37875000000000014
F0.37875000000000014
F0.0
F0.0
tp174
aF-1.0
aF0.027109245973363193
ag1
(g20
g3
Ntp175
Rp176
(lp177
g1
(g24
g3
Ntp178
Rp179
(lp180
I0
ag1
(g28
g3
Ntp181
Rp182
(lp183
I0
aI0
abag32
abag1
(g33
g3
Ntp184
Rp185
(lp186
F0.0
aF0.0
aF0.0
abababag1
(g2
g3
Ntp187
Rp188
(lp189
I0
ag1
(g7
g3
Ntp190
Rp191
(lp192
g1
(g11
g3
Ntp193
Rp194
(lp195
F0.20321611841712636
aF-0.04995147179113186
aF-0.004367019653320284
abag1
(g15
g3
Ntp196
Rp197
(lp198
F-0.04732875314896712
aF-0.7055210763154875
aF0.04732875314896706
aF-0.7055210763154877
ababa(F0.0
F0.0
F0.26312500000000005
F0.26312500000000005
tp199
aF-1.0
aF0.01859888690279605
ag1
(g20
g3
Ntp200
Rp201
(lp202
g1
(g24
g3
Ntp203
Rp204
(lp205
I0
ag1
(g28
g3
Ntp206
Rp207
(lp208
I0
aI0
abag32
abag1
(g33
g3
Ntp209
Rp210
(lp211
F0.0
aF0.0
aF0.0
abababag1
(g2
g3
Ntp212
Rp213
(lp214
I0
ag1
(g7
g3
Ntp215
Rp216
(lp217
g1
(g11
g3
Ntp218
Rp219
(lp220
F-0.2062431886866658
aF0.022986115783233424
aF-0.004367019653320331
abag1
(g15
g3
Ntp221
Rp222
(lp223
F-0.02340600806012516
aF-0.7067192927794524
aF-0.02340600806012494
aF0.7067192927794523
ababa(F0.17
F0.17
F0.0
F0.0
tp224
aF-1.0
aF0.01819821517483842
ag1
(g20
g3
Ntp225
Rp226
(lp227
g1
(g24
g3
Ntp228
Rp229
(lp230
I0
ag1
(g28
g3
Ntp231
Rp232
(lp233
I0
aI0
abag32
abag1
(g33
g3
Ntp234
Rp235
(lp236
F0.0
aF0.0
aF0.0
abababag1
(g2
g3
Ntp237
Rp238
(lp239
I0
ag1
(g7
g3
Ntp240
Rp241
(lp242
g1
(g11
g3
Ntp243
Rp244
(lp245
F-0.20351480569993638
aF-0.0257018532245553
aF-0.004367019653320326
abag1
(g15
g3
Ntp246
Rp247
(lp248
F-0.7067192927794524
aF-0.023406008060124724
aF0.7067192927794524
aF-0.023406008060124724
ababa(F0.16937500000000003
F0.16937500000000003
F0.0
F0.0
tp249
aF-1.0
aF0.01390647967592141
ag1
(g20
g3
Ntp250
Rp251
(lp252
g1
(g24
g3
Ntp253
Rp254
(lp255
I0
ag1
(g28
g3
Ntp256
Rp257
(lp258
I0
aI0
abag32
abag1
(g33
g3
Ntp259
Rp260
(lp261
F0.0
aF0.0
aF0.0
abababag1
(g2
g3
Ntp262
Rp263
(lp264
I0
ag1
(g7
g3
Ntp265
Rp266
(lp267
g1
(g11
g3
Ntp268
Rp269
(lp270
F-0.0345663702366008
aF-0.1828214326243527
aF-0.004367019653320293
abag1
(g15
g3
Ntp271
Rp272
(lp273
F-0.5791288434643875
aF-0.4057213115768027
aF0.5791288434643874
aF-0.4057213115768028
ababa(F0.5218750000000003
F0.5218750000000003
F0.0
F0.0
tp274
aF0.016072682562408014
aF0.012995191214004328
ag1
(g20
g3
Ntp275
Rp276
(lp277
g1
(g24
g3
Ntp278
Rp279
(lp280
I0
ag1
(g28
g3
Ntp281
Rp282
(lp283
I0
aI0
abag32
abag1
(g33
g3
Ntp284
Rp285
(lp286
F0.0
aF0.0
aF0.0
abababag1
(g2
g3
Ntp287
Rp288
(lp289
I0
ag1
(g7
g3
Ntp290
Rp291
(lp292
g1
(g11
g3
Ntp293
Rp294
(lp295
F0.20159019348849117
aF0.046835680661899026
aF-0.004367019653320303
abag1
(g15
g3
Ntp296
Rp297
(lp298
F-0.7055210763154877
aF-0.04732875314896751
aF-0.7055210763154877
aF0.04732875314896757
ababa(F0.0
F0.0
F0.27375000000000005
F0.27375000000000005
tp299
aF-1.0
aF0.010699704549283501
ag1
(g20
g3
Ntp300
Rp301
(lp302
g1
(g24
g3
Ntp303
Rp304
(lp305
I0
ag1
(g28
g3
Ntp306
Rp307
(lp308
I0
aI0
abag32
abag1
(g33
g3
Ntp309
Rp310
(lp311
F0.0
aF0.0
aF0.0
abababag1
(g2
g3
Ntp312
Rp313
(lp314
I0
ag1
(g7
g3
Ntp315
Rp316
(lp317
g1
(g11
g3
Ntp318
Rp319
(lp320
F-0.035633747953255746
aF0.18286183419755758
aF-0.004367019653320299
abag1
(g15
g3
Ntp321
Rp322
(lp323
F-0.4057213115768029
aF-0.5791288434643873
aF-0.4057213115768028
aF0.5791288434643874
ababa(F0.5000000000000002
F0.5000000000000002
F0.0
F0.0
tp324
aF0.007464211059773743
aF0.0052238288176085935
ag1
(g20
g3
Ntp325
Rp326
(lp327
g1
(g24
g3
Ntp328
Rp329
(lp330
I0
ag1
(g28
g3
Ntp331
Rp332
(lp333
I0
aI0
abag32
abag1
(g33
g3
Ntp334
Rp335
(lp336
F0.0
aF0.0
aF0.0
abababag1
(g2
g3
Ntp337
Rp338
(lp339
I0
ag1
(g7
g3
Ntp340
Rp341
(lp342
g1
(g11
g3
Ntp343
Rp344
(lp345
F-0.19628583971290248
aF0.07095488513858174
aF-0.004367019653320326
abag1
(g15
g3
Ntp346
Rp347
(lp348
F-0.0723194748140844
aF-0.7033988154401563
aF-0.0723194748140843
aF0.7033988154401563
ababa(F0.3825000000000002
F0.3825000000000002
F0.0
F0.0
tp349
aF-1.0
aF0.0025010673607041766
ag1
(g20
g3
Ntp350
Rp351
(lp352
g1
(g24
g3
Ntp353
Rp354
(lp355
I0
ag1
(g28
g3
Ntp356
Rp357
(lp358
I0
aI0
abag32
abag1
(g33
g3
Ntp359
Rp360
(lp361
F0.0
aF0.0
aF0.0
abababag1
(g2
g3
Ntp362
Rp363
(lp364
I0
ag1
(g7
g3
Ntp365
Rp366
(lp367
g1
(g11
g3
Ntp368
Rp369
(lp370
F-0.1516004202631812
aF0.16107850901914983
aF-0.004367019653320326
abag1
(g15
g3
Ntp371
Rp372
(lp373
F-0.1972485986991249
aF-0.679038283391468
aF-0.19724859869912478
aF0.679038283391468
ababa(F1.0471975511965976
F1.2217304763960306
F0.0
F0.0
tp374
aF-1.0
aF1.2424386764724943e-06
ag1
(g20
g3
Ntp375
Rp376
(lp377
g1
(g24
g3
Ntp378
Rp379
(lp380
I0
ag1
(g28
g3
Ntp381
Rp382
(lp383
I0
aI0
abag32
abag1
(g33
g3
Ntp384
Rp385
(lp386
F0.0
aF0.0
aF0.0
abababag1
(g2
g3
Ntp387
Rp388
(lp389
I0
ag1
(g7
g3
Ntp390
Rp391
(lp392
g1
(g11
g3
Ntp393
Rp394
(lp395
F-0.17922565444163263
aF0.11741737075925653
aF-0.00436701965332027
abag1
(g15
g3
Ntp396
Rp397
(lp398
F-0.12810285836472673
aF-0.6954061098946334
aF-0.12810285836472668
aF0.6954061098946334
ababa(F1.0471975511965976
F1.2217304763960306
F0.0
F0.0
tp399
aF-1.0
aF8.197061520130074e-07
ag1
(g20
g3
Ntp400
Rp401
(lp402
g1
(g24
g3
Ntp403
Rp404
(lp405
I0
ag1
(g28
g3
Ntp406
Rp407
(lp408
I0
aI0
abag32
abag1
(g33
g3
Ntp409
Rp410
(lp411
F0.0
aF0.0
aF0.0
abababag1
(g2
g3
Ntp412
Rp413
(lp414
I0
ag1
(g7
g3
Ntp415
Rp416
(lp417
g1
(g11
g3
Ntp418
Rp419
(lp420
F-0.15278781833368202
aF-0.16472857771319777
aF-0.004367019653320299
abag1
(g15
g3
Ntp421
Rp422
(lp423
F-0.6790382833914681
aF-0.19724859869912442
aF0.6790382833914681
aF-0.1972485986991246
ababa(F1.0471975511965976
F1.2217304763960306
F0.0
F0.0
tp424
aF-1.0
aF1.6776090479501823e-07
ag1
(g20
g3
Ntp425
Rp426
(lp427
g1
(g24
g3
Ntp428
Rp429
(lp430
I0
ag1
(g28
g3
Ntp431
Rp432
(lp433
I0
aI0
abag32
abag1
(g33
g3
Ntp434
Rp435
(lp436
F0.0
aF0.0
aF0.0
abababag1
(g2
g3
Ntp437
Rp438
(lp439
I0
ag1
(g7
g3
Ntp440
Rp441
(lp442
g1
(g11
g3
Ntp443
Rp444
(lp445
F-0.17929865120965735
aF-0.120341869207331
aF-0.004367019653320299
abag1
(g15
g3
Ntp446
Rp447
(lp448
F-0.6954061098946334
aF-0.1281028583647263
aF0.6954061098946334
aF-0.1281028583647264
ababa(F1.0471975511965976
F1.2217304763960306
F0.0
F0.0
tp449
aF-1.0
aF5.892337287445992e-08
ag1
(g20
g3
Ntp450
Rp451
(lp452
g1
(g24
g3
Ntp453
Rp454
(lp455
I0
ag1
(g28
g3
Ntp456
Rp457
(lp458
I0
aI0
abag32
abag1
(g33
g3
Ntp459
Rp460
(lp461
F0.0
aF0.0
aF0.0
abababa.