(lp0
ccopy_reg
_reconstructor
p1
(cgraspit_interface.msg._Grasp
Grasp
p2
c__builtin__
object
p3
Ntp4
Rp5
(lp6
I0
ag1
(cgeometry_msgs.msg._Pose
Pose
p7
g3
Ntp8
Rp9
(lp10
g1
(cgeometry_msgs.msg._Point
Point
p11
g3
Ntp12
Rp13
(lp14
F0.008243648529052749
aF0.0006881561279296876
aF0.1762019691467285
abag1
(cgeometry_msgs.msg._Quaternion
Quaternion
p15
g3
Ntp16
Rp17
(lp18
F-2.133662462568401e-17
aF1.3064914526226259e-33
aF-1.0
aF6.123233995736766e-17
ababa(F0.015
F0.2975000000000001
F0.0
F0.3300000000000001
tp19
aF0.33169257179535333
aF1.2448274675694184
ag1
(cgeometry_msgs.msg._Vector3Stamped
Vector3Stamped
p20
g3
Ntp21
Rp22
(lp23
g1
(cstd_msgs.msg._Header
Header
p24
g3
Ntp25
Rp26
(lp27
I0
ag1
(cgenpy.rostime
Time
p28
g3
Ntp29
Rp30
(lp31
I0
aI0
abaS''
p32
abag1
(cgeometry_msgs.msg._Vector3
Vector3
p33
g3
Ntp34
Rp35
(lp36
F0.0
aF0.0
aF0.0
abababag1
(g2
g3
Ntp37
Rp38
(lp39
I0
ag1
(g7
g3
Ntp40
Rp41
(lp42
g1
(g11
g3
Ntp43
Rp44
(lp45
F0.008243648529052749
aF0.0006881561279296876
aF0.1771394691467285
abag1
(g15
g3
Ntp46
Rp47
(lp48
F-2.6129829052452518e-33
aF-2.133662462568401e-17
aF-1.2246467991473532e-16
aF-1.0
ababa(F0.0
F0.3100000000000001
F0.0
F0.3100000000000001
tp49
aF0.309959921218286
aF1.18736160820626
ag1
(g20
g3
Ntp50
Rp51
(lp52
g1
(g24
g3
Ntp53
Rp54
(lp55
I0
ag1
(g28
g3
Ntp56
Rp57
(lp58
I0
aI0
abag32
abag1
(g33
g3
Ntp59
Rp60
(lp61
F0.0
aF0.0
aF0.0
abababag1
(g2
g3
Ntp62
Rp63
(lp64
I0
ag1
(g7
g3
Ntp65
Rp66
(lp67
g1
(g11
g3
Ntp68
Rp69
(lp70
F-0.1580116452863457
aF0.01860985745421089
aF0.001728099822998047
abag1
(g15
g3
Ntp71
Rp72
(lp73
F-0.05575076200982193
aF-0.7049055628488998
aF-0.05575076200982165
aF0.7049055628488998
ababa(F0.08
F0.08
F0.2512500000000001
F0.2512500000000001
tp74
aF0.0634991758581922
aF0.2828530089555414
ag1
(g20
g3
Ntp75
Rp76
(lp77
g1
(g24
g3
Ntp78
Rp79
(lp80
I0
ag1
(g28
g3
Ntp81
Rp82
(lp83
I0
aI0
abag32
abag1
(g33
g3
Ntp84
Rp85
(lp86
F0.0
aF0.0
aF0.0
abababag1
(g2
g3
Ntp87
Rp88
(lp89
I0
ag1
(g7
g3
Ntp90
Rp91
(lp92
g1
(g11
g3
Ntp93
Rp94
(lp95
F-0.06801967753618632
aF0.14322583327717134
aF0.0017280998229980673
abag1
(g15
g3
Ntp96
Rp97
(lp98
F-0.4031558925233959
aF-0.580917658815485
aF-0.4031558925233957
aF0.580917658815485
ababa(F0.0
F0.0
F0.28375000000000006
F0.28375000000000006
tp99
aF0.0966605260526598
aF0.2598698358813516
ag1
(g20
g3
Ntp100
Rp101
(lp102
g1
(g24
g3
Ntp103
Rp104
(lp105
I0
ag1
(g28
g3
Ntp106
Rp107
(lp108
I0
aI0
abag32
abag1
(g33
g3
Ntp109
Rp110
(lp111
F0.0
aF0.0
aF0.0
abababag1
(g2
g3
Ntp112
Rp113
(lp114
I0
ag1
(g7
g3
Ntp115
Rp116
(lp117
g1
(g11
g3
Ntp118
Rp119
(lp120
F-0.15808879899026304
aF-0.017245826142811848
aF0.0017280998229980454
abag1
(g15
g3
Ntp121
Rp122
(lp123
F-0.7049055628489
aF-0.05575076200982103
aF0.7049055628488998
aF-0.055750762009821084
ababa(F0.0775
F0.0775
F0.2512500000000001
F0.2512500000000001
tp124
aF0.05118105249268355
aF0.2456743891612398
ag1
(g20
g3
Ntp125
Rp126
(lp127
g1
(g24
g3
Ntp128
Rp129
(lp130
I0
ag1
(g28
g3
Ntp131
Rp132
(lp133
I0
aI0
abag32
abag1
(g33
g3
Ntp134
Rp135
(lp136
F0.0
aF0.0
aF0.0
abababag1
(g2
g3
Ntp137
Rp138
(lp139
I0
ag1
(g7
g3
Ntp140
Rp141
(lp142
g1
(g11
g3
Ntp143
Rp144
(lp145
F-0.068129009194091
aF-0.1421422714928398
aF0.0017280998229980366
abag1
(g15
g3
Ntp146
Rp147
(lp148
F-0.5809176588154852
aF-0.4031558925233955
aF0.5809176588154852
aF-0.4031558925233956
ababa(F0.0
F0.0
F0.2787500000000001
F0.2787500000000001
tp149
aF0.10323085140788753
aF0.2445505723034649
ag1
(g20
g3
Ntp150
Rp151
(lp152
g1
(g24
g3
Ntp153
Rp154
(lp155
I0
ag1
(g28
g3
Ntp156
Rp157
(lp158
I0
aI0
abag32
abag1
(g33
g3
Ntp159
Rp160
(lp161
F0.0
aF0.0
aF0.0
abababag1
(g2
g3
Ntp162
Rp163
(lp164
I0
ag1
(g7
g3
Ntp165
Rp166
(lp167
g1
(g11
g3
Ntp168
Rp169
(lp170
F-0.028562215386762197
aF0.1768494489885094
aF0.0017280998229980893
abag1
(g15
g3
Ntp171
Rp172
(lp173
F-0.46106096715465317
aF-0.5361182561398332
aF-0.46106096715465306
aF0.5361182561398334
ababa(F0.130625
F0.130625
F0.09625
F0.09625
tp174
aF0.08228557602598986
aF0.16100847539471697
ag1
(g20
g3
Ntp175
Rp176
(lp177
g1
(g24
g3
Ntp178
Rp179
(lp180
I0
ag1
(g28
g3
Ntp181
Rp182
(lp183
I0
aI0
abag32
abag1
(g33
g3
Ntp184
Rp185
(lp186
F0.0
aF0.0
aF0.0
abababag1
(g2
g3
Ntp187
Rp188
(lp189
I0
ag1
(g7
g3
Ntp190
Rp191
(lp192
g1
(g11
g3
Ntp193
Rp194
(lp195
F-0.028936443232426418
aF-0.17794496874950103
aF0.0017280998229980895
abag1
(g15
g3
Ntp196
Rp197
(lp198
F-0.5361182561398334
aF-0.46106096715465295
aF0.5361182561398334
aF-0.46106096715465317
ababa(F0.126875
F0.126875
F0.09375
F0.09375
tp199
aF0.08365463739891389
aF0.1593629311372803
ag1
(g20
g3
Ntp200
Rp201
(lp202
g1
(g24
g3
Ntp203
Rp204
(lp205
I0
ag1
(g28
g3
Ntp206
Rp207
(lp208
I0
aI0
abag32
abag1
(g33
g3
Ntp209
Rp210
(lp211
F0.0
aF0.0
aF0.0
abababag1
(g2
g3
Ntp212
Rp213
(lp214
I0
ag1
(g7
g3
Ntp215
Rp216
(lp217
g1
(g11
g3
Ntp218
Rp219
(lp220
F0.0218055690186396
aF0.2042747390054651
aF0.0017280998229980645
abag1
(g15
g3
Ntp221
Rp222
(lp223
F-0.5123158537212503
aF-0.48737302554190104
aF-0.5123158537212502
aF0.4873730255419011
ababa(F0.2662500000000001
F0.2662500000000001
F0.0
F0.0
tp224
aF0.038824401919944615
aF0.09854780524038456
ag1
(g20
g3
Ntp225
Rp226
(lp227
g1
(g24
g3
Ntp228
Rp229
(lp230
I0
ag1
(g28
g3
Ntp231
Rp232
(lp233
I0
aI0
abag32
abag1
(g33
g3
Ntp234
Rp235
(lp236
F0.0
aF0.0
aF0.0
abababag1
(g2
g3
Ntp237
Rp238
(lp239
I0
ag1
(g7
g3
Ntp240
Rp241
(lp242
g1
(g11
g3
Ntp243
Rp244
(lp245
F-0.1973786513420983
aF0.07817757274339948
aF0.0017280998229980847
abag1
(g15
g3
Ntp246
Rp247
(lp248
F-0.1621484594724138
aF-0.6882643947573657
aF-0.16214845947241374
aF0.6882643947573659
ababa(F0.0
F0.0
F0.3050000000000001
F0.3050000000000001
tp249
aF0.028609591018461153
aF0.09131938423357526
ag1
(g20
g3
Ntp250
Rp251
(lp252
g1
(g24
g3
Ntp253
Rp254
(lp255
I0
ag1
(g28
g3
Ntp256
Rp257
(lp258
I0
aI0
abag32
abag1
(g33
g3
Ntp259
Rp260
(lp261
F0.0
aF0.0
aF0.0
abababag1
(g2
g3
Ntp262
Rp263
(lp264
I0
ag1
(g7
g3
Ntp265
Rp266
(lp267
g1
(g11
g3
Ntp268
Rp269
(lp270
F-0.19737865134209848
aF-0.07680126048753981
aF0.0017280998229980893
abag1
(g15
g3
Ntp271
Rp272
(lp273
F-0.6882643947573659
aF-0.16214845947241302
aF0.688264394757366
aF-0.1621484594724132
ababa(F0.0
F0.0
F0.3025000000000001
F0.3025000000000001
tp274
aF0.03881573466230771
aF0.07919384076278582
ag1
(g20
g3
Ntp275
Rp276
(lp277
g1
(g24
g3
Ntp278
Rp279
(lp280
I0
ag1
(g28
g3
Ntp281
Rp282
(lp283
I0
aI0
abag32
abag1
(g33
g3
Ntp284
Rp285
(lp286
F0.0
aF0.0
aF0.0
abababag1
(g2
g3
Ntp287
Rp288
(lp289
I0
ag1
(g7
g3
Ntp290
Rp291
(lp292
g1
(g11
g3
Ntp293
Rp294
(lp295
F-0.1350624156578866
aF0.16644080866832656
aF0.0017280998229980723
abag1
(g15
g3
Ntp296
Rp297
(lp298
F-0.33584206528309346
aF-0.6222620888230187
aF-0.33584206528309346
aF0.6222620888230188
ababa(F0.0
F0.0
F0.35750000000000015
F0.35750000000000015
tp299
aF0.026238406674004865
aF0.07767366201530385
ag1
(g20
g3
Ntp300
Rp301
(lp302
g1
(g24
g3
Ntp303
Rp304
(lp305
I0
ag1
(g28
g3
Ntp306
Rp307
(lp308
I0
aI0
abag32
abag1
(g33
g3
Ntp309
Rp310
(lp311
F0.0
aF0.0
aF0.0
abababag1
(g2
g3
Ntp312
Rp313
(lp314
I0
ag1
(g7
g3
Ntp315
Rp316
(lp317
g1
(g11
g3
Ntp318
Rp319
(lp320
F-0.13523392829186973
aF-0.1653257236437892
aF0.0017280998229980385
abag1
(g15
g3
Ntp321
Rp322
(lp323
F-0.6222620888230189
aF-0.3358420652830933
aF0.6222620888230188
aF-0.33584206528309324
ababa(F0.0
F0.0
F0.3612500000000001
F0.3612500000000001
tp324
aF0.022141400888699786
aF0.06180480469469206
ag1
(g20
g3
Ntp325
Rp326
(lp327
g1
(g24
g3
Ntp328
Rp329
(lp330
I0
ag1
(g28
g3
Ntp331
Rp332
(lp333
I0
aI0
abag32
abag1
(g33
g3
Ntp334
Rp335
(lp336
F0.0
aF0.0
aF0.0
abababag1
(g2
g3
Ntp337
Rp338
(lp339
I0
ag1
(g7
g3
Ntp340
Rp341
(lp342
g1
(g11
g3
Ntp343
Rp344
(lp345
F0.2043263100966633
aF0.04717418757665381
aF0.0017280998229980689
abag1
(g15
g3
Ntp346
Rp347
(lp348
F-0.6984713792576194
aF-0.11017137721731046
aF-0.6984713792576194
aF0.11017137721731057
ababa(F0.4100000000000002
F0.4100000000000002
F0.0
F0.0
tp349
aF0.012690812844649482
aF0.05120992707154325
ag1
(g20
g3
Ntp350
Rp351
(lp352
g1
(g24
g3
Ntp353
Rp354
(lp355
I0
ag1
(g28
g3
Ntp356
Rp357
(lp358
I0
aI0
abag32
abag1
(g33
g3
Ntp359
Rp360
(lp361
F0.0
aF0.0
aF0.0
abababag1
(g2
g3
Ntp362
Rp363
(lp364
I0
ag1
(g7
g3
Ntp365
Rp366
(lp367
g1
(g11
g3
Ntp368
Rp369
(lp370
F0.1734073444463065
aF0.14945817975798878
aF0.001728099822998053
abag1
(g15
g3
Ntp371
Rp372
(lp373
F-0.6413844910304944
aF-0.2977010827416548
aF-0.6413844910304944
aF0.2977010827416548
ababa(F0.3100000000000001
F0.3100000000000001
F0.0
F0.0
tp374
aF-1.0
aF0.04224557226593724
ag1
(g20
g3
Ntp375
Rp376
(lp377
g1
(g24
g3
Ntp378
Rp379
(lp380
I0
ag1
(g28
g3
Ntp381
Rp382
(lp383
I0
aI0
abag32
abag1
(g33
g3
Ntp384
Rp385
(lp386
F0.0
aF0.0
aF0.0
abababag1
(g2
g3
Ntp387
Rp388
(lp389
I0
ag1
(g7
g3
Ntp390
Rp391
(lp392
g1
(g11
g3
Ntp393
Rp394
(lp395
F0.20462363793121596
aF-0.045894064763043675
aF0.001728099822998097
abag1
(g15
g3
Ntp396
Rp397
(lp398
F-0.11017137721730969
aF-0.6984713792576194
aF0.11017137721730952
aF-0.6984713792576196
ababa(F0.4150000000000002
F0.4150000000000002
F0.0
F0.0
tp399
aF0.00837808945590212
aF0.04195417620494907
ag1
(g20
g3
Ntp400
Rp401
(lp402
g1
(g24
g3
Ntp403
Rp404
(lp405
I0
ag1
(g28
g3
Ntp406
Rp407
(lp408
I0
aI0
abag32
abag1
(g33
g3
Ntp409
Rp410
(lp411
F0.0
aF0.0
aF0.0
abababag1
(g2
g3
Ntp412
Rp413
(lp414
I0
ag1
(g7
g3
Ntp415
Rp416
(lp417
g1
(g11
g3
Ntp418
Rp419
(lp420
F0.008243648529052749
aF0.0006881561279296874
aF0.23213946914672853
abag1
(g15
g3
Ntp421
Rp422
(lp423
F-1.5087271960453044e-17
aF1.5087271960453044e-17
aF-0.7071067811865475
aF0.7071067811865477
ababa(F0.17500000000000002
F0.17500000000000002
F0.0
F0.0
tp424
aF-1.0
aF0.040970336611248756
ag1
(g20
g3
Ntp425
Rp426
(lp427
g1
(g24
g3
Ntp428
Rp429
(lp430
I0
ag1
(g28
g3
Ntp431
Rp432
(lp433
I0
aI0
abag32
abag1
(g33
g3
Ntp434
Rp435
(lp436
F0.0
aF0.0
aF0.0
abababag1
(g2
g3
Ntp437
Rp438
(lp439
I0
ag1
(g7
g3
Ntp440
Rp441
(lp442
g1
(g11
g3
Ntp443
Rp444
(lp445
F0.13102862682172225
aF-0.18554984141982375
aF0.0017280998229980715
abag1
(g15
g3
Ntp446
Rp447
(lp448
F-0.3708668861379286
aF-0.6020446434994307
aF0.3708668861379286
aF-0.6020446434994309
ababa(F0.2950000000000001
F0.2950000000000001
F0.0
F0.0
tp449
aF-1.0
aF0.03599108502517195
ag1
(g20
g3
Ntp450
Rp451
(lp452
g1
(g24
g3
Ntp453
Rp454
(lp455
I0
ag1
(g28
g3
Ntp456
Rp457
(lp458
I0
aI0
abag32
abag1
(g33
g3
Ntp459
Rp460
(lp461
F0.0
aF0.0
aF0.0
abababag1
(g2
g3
Ntp462
Rp463
(lp464
I0
ag1
(g7
g3
Ntp465
Rp466
(lp467
g1
(g11
g3
Ntp468
Rp469
(lp470
F0.0217744001837043
aF-0.2022742044304527
aF0.001728099822998061
abag1
(g15
g3
Ntp471
Rp472
(lp473
F-0.4873730255419011
aF-0.5123158537212502
aF0.487373025541901
aF-0.5123158537212503
ababa(F0.26250000000000007
F0.26250000000000007
F0.0
F0.0
tp474
aF-1.0
aF0.03452353026642058
ag1
(g20
g3
Ntp475
Rp476
(lp477
g1
(g24
g3
Ntp478
Rp479
(lp480
I0
ag1
(g28
g3
Ntp481
Rp482
(lp483
I0
aI0
abag32
abag1
(g33
g3
Ntp484
Rp485
(lp486
F0.0
aF0.0
aF0.0
abababag1
(g2
g3
Ntp487
Rp488
(lp489
I0
ag1
(g7
g3
Ntp490
Rp491
(lp492
g1
(g11
g3
Ntp493
Rp494
(lp495
F0.008243648529052749
aF0.0006881561279296874
aF0.23198321914672854
abag1
(g15
g3
Ntp496
Rp497
(lp498
F-1.5087271960453044e-17
aF-1.5087271960453044e-17
aF-0.7071067811865477
aF-0.7071067811865475
ababa(F0.0
F0.0
F0.17250000000000001
F0.17250000000000001
tp499
aF-1.0
aF0.024217022030047337
ag1
(g20
g3
Ntp500
Rp501
(lp502
g1
(g24
g3
Ntp503
Rp504
(lp505
I0
ag1
(g28
g3
Ntp506
Rp507
(lp508
I0
aI0
abag32
abag1
(g33
g3
Ntp509
Rp510
(lp511
F0.0
aF0.0
aF0.0
abababag1
(g2
g3
Ntp512
Rp513
(lp514
I0
ag1
(g7
g3
Ntp515
Rp516
(lp517
g1
(g11
g3
Ntp518
Rp519
(lp520
F0.17350820323714078
aF-0.14820120553802513
aF0.0017280998229980784
abag1
(g15
g3
Ntp521
Rp522
(lp523
F-0.2977010827416544
aF-0.6413844910304947
aF0.29770108274165424
aF-0.6413844910304947
ababa(F0.3256250000000001
F0.3256250000000001
F0.0
F0.0
tp524
aF-1.0
aF0.02216325409404564
ag1
(g20
g3
Ntp525
Rp526
(lp527
g1
(g24
g3
Ntp528
Rp529
(lp530
I0
ag1
(g28
g3
Ntp531
Rp532
(lp533
I0
aI0
abag32
abag1
(g33
g3
Ntp534
Rp535
(lp536
F0.0
aF0.0
aF0.0
abababag1
(g2
g3
Ntp537
Rp538
(lp539
I0
ag1
(g7
g3
Ntp540
Rp541
(lp542
g1
(g11
g3
Ntp543
Rp544
(lp545
F0.20076416220803264
aF0.10121182027842758
aF0.0017280998229980754
abag1
(g15
g3
Ntp546
Rp547
(lp548
F-0.6749156801967153
aF-0.21092374125404934
aF-0.6749156801967153
aF0.21092374125404945
ababa(F0.39875000000000016
F0.39875000000000016
F0.0
F0.0
tp549
aF-1.0
aF0.01887913143576315
ag1
(g20
g3
Ntp550
Rp551
(lp552
g1
(g24
g3
Ntp553
Rp554
(lp555
I0
ag1
(g28
g3
Ntp556
Rp557
(lp558
I0
aI0
abag32
abag1
(g33
g3
Ntp559
Rp560
(lp561
F0.0
aF0.0
aF0.0
abababag1
(g2
g3
Ntp562
Rp563
(lp564
I0
ag1
(g7
g3
Ntp565
Rp566
(lp567
g1
(g11
g3
Ntp568
Rp569
(lp570
F0.20089260669264247
aF-0.09992448036025418
aF0.001728099822998061
abag1
(g15
g3
Ntp571
Rp572
(lp573
F-0.21092374125404867
aF-0.6749156801967154
aF0.21092374125404856
aF-0.6749156801967156
ababa(F0.4612500000000002
F0.4612500000000002
F0.0
F0.0
tp574
aF-1.0
aF0.016845533926397076
ag1
(g20
g3
Ntp575
Rp576
(lp577
g1
(g24
g3
Ntp578
Rp579
(lp580
I0
ag1
(g28
g3
Ntp581
Rp582
(lp583
I0
aI0
abag32
abag1
(g33
g3
Ntp584
Rp585
(lp586
F0.0
aF0.0
aF0.0
abababag1
(g2
g3
Ntp587
Rp588
(lp589
I0
ag1
(g7
g3
Ntp590
Rp591
(lp592
g1
(g11
g3
Ntp593
Rp594
(lp595
F0.07840626876084242
aF-0.20657565921686388
aF0.0017280998229980468
abag1
(g15
g3
Ntp596
Rp597
(lp598
F-0.4330981713599442
aF-0.5589507795545798
aF0.4330981713599441
aF-0.5589507795545798
ababa(F1.0471975511965976
F1.2217304763960306
F0.0
F0.0
tp599
aF-1.0
aF6.757342888793773e-07
ag1
(g20
g3
Ntp600
Rp601
(lp602
g1
(g24
g3
Ntp603
Rp604
(lp605
I0
ag1
(g28
g3
Ntp606
Rp607
(lp608
I0
aI0
abag32
abag1
(g33
g3
Ntp609
Rp610
(lp611
F0.0
aF0.0
aF0.0
abababa.