(lp0
ccopy_reg
_reconstructor
p1
(cgraspit_interface.msg._Grasp
Grasp
p2
c__builtin__
object
p3
Ntp4
Rp5
(lp6
I0
ag1
(cgeometry_msgs.msg._Pose
Pose
p7
g3
Ntp8
Rp9
(lp10
g1
(cgeometry_msgs.msg._Point
Point
p11
g3
Ntp12
Rp13
(lp14
F0.009131900628621478
aF-0.1509505292832885
aF0.011891189575195348
abag1
(cgeometry_msgs.msg._Quaternion
Quaternion
p15
g3
Ntp16
Rp17
(lp18
F-0.48912226374179674
aF-0.5106460722575865
aF0.4891222637417967
aF-0.5106460722575866
ababa(F0.0
F1.0150000000000006
F0.0225
F0.0225
tp19
aF0.14065592099383725
aF0.21076769201394654
ag1
(cgeometry_msgs.msg._Vector3Stamped
Vector3Stamped
p20
g3
Ntp21
Rp22
(lp23
g1
(cstd_msgs.msg._Header
Header
p24
g3
Ntp25
Rp26
(lp27
I0
ag1
(cgenpy.rostime
Time
p28
g3
Ntp29
Rp30
(lp31
I0
aI0
abaS''
p32
abag1
(cgeometry_msgs.msg._Vector3
Vector3
p33
g3
Ntp34
Rp35
(lp36
F0.0
aF0.0
aF0.0
abababag1
(g2
g3
Ntp37
Rp38
(lp39
I0
ag1
(g7
g3
Ntp40
Rp41
(lp42
g1
(g11
g3
Ntp43
Rp44
(lp45
F-0.0013215484619140592
aF-0.0024585647583007814
aF0.21879910278320314
abag1
(g15
g3
Ntp46
Rp47
(lp48
F-4.259013187079565e-17
aF-4.2590131870795636e-17
aF-0.7071067811865476
aF-0.7071067811865475
ababa(F0.061875000000000006
F0.061875000000000006
F0.048125
F0.048125
tp49
aF0.0973264108820061
aF0.08636510094443801
ag1
(g20
g3
Ntp50
Rp51
(lp52
g1
(g24
g3
Ntp53
Rp54
(lp55
I0
ag1
(g28
g3
Ntp56
Rp57
(lp58
I0
aI0
abag32
abag1
(g33
g3
Ntp59
Rp60
(lp61
F0.0
aF0.0
aF0.0
abababag1
(g2
g3
Ntp62
Rp63
(lp64
I0
ag1
(g7
g3
Ntp65
Rp66
(lp67
g1
(g11
g3
Ntp68
Rp69
(lp70
F0.1626887544056924
aF-0.04049474100565979
aF0.011891189575195363
abag1
(g15
g3
Ntp71
Rp72
(lp73
F-0.1261629597684383
aF-0.6957606683209877
aF0.12616295976843814
aF-0.6957606683209878
ababa(F0.44500000000000023
F0.44500000000000023
F0.0
F0.22500000000000006
tp74
aF0.09926535467555161
aF0.07977406684741095
ag1
(g20
g3
Ntp75
Rp76
(lp77
g1
(g24
g3
Ntp78
Rp79
(lp80
I0
ag1
(g28
g3
Ntp81
Rp82
(lp83
I0
aI0
abag32
abag1
(g33
g3
Ntp84
Rp85
(lp86
F0.0
aF0.0
aF0.0
abababag1
(g2
g3
Ntp87
Rp88
(lp89
I0
ag1
(g7
g3
Ntp90
Rp91
(lp92
g1
(g11
g3
Ntp93
Rp94
(lp95
F-0.1633715673667797
aF0.015613825485487062
aF0.011891189575195324
abag1
(g15
g3
Ntp96
Rp97
(lp98
F-0.06441704993454839
aF-0.7041664886074386
aF-0.06441704993454828
aF0.7041664886074386
ababa(F0.155
F0.25500000000000006
F0.3306250000000001
F0.3306250000000001
tp99
aF0.08736435785516301
aF0.05570829000497767
ag1
(g20
g3
Ntp100
Rp101
(lp102
g1
(g24
g3
Ntp103
Rp104
(lp105
I0
ag1
(g28
g3
Ntp106
Rp107
(lp108
I0
aI0
abag32
abag1
(g33
g3
Ntp109
Rp110
(lp111
F0.0
aF0.0
aF0.0
abababag1
(g2
g3
Ntp112
Rp113
(lp114
I0
ag1
(g7
g3
Ntp115
Rp116
(lp117
g1
(g11
g3
Ntp118
Rp119
(lp120
F-0.001321548461914059
aF-0.0024585647583007814
aF0.21833035278320312
abag1
(g15
g3
Ntp121
Rp122
(lp123
F-4.2590131870795636e-17
aF4.259013187079565e-17
aF-0.7071067811865475
aF0.7071067811865476
ababa(F0.051875000000000004
F0.051875000000000004
F0.05500000000000001
F0.05500000000000001
tp124
aF0.06392415954751897
aF0.04839614812169009
ag1
(g20
g3
Ntp125
Rp126
(lp127
g1
(g24
g3
Ntp128
Rp129
(lp130
I0
ag1
(g28
g3
Ntp131
Rp132
(lp133
I0
aI0
abag32
abag1
(g33
g3
Ntp134
Rp135
(lp136
F0.0
aF0.0
aF0.0
abababag1
(g2
g3
Ntp137
Rp138
(lp139
I0
ag1
(g7
g3
Ntp140
Rp141
(lp142
g1
(g11
g3
Ntp143
Rp144
(lp145
F-0.15776310412038158
aF-0.01949617252280816
aF0.011891189575195327
abag1
(g15
g3
Ntp146
Rp147
(lp148
F-0.7041664886074387
aF-0.06441704993454751
aF0.7041664886074387
aF-0.06441704993454761
ababa(F0.043750000000000004
F0.043750000000000004
F0.4400000000000003
F0.4400000000000003
tp149
aF0.10637113774992438
aF0.040728714588141555
ag1
(g20
g3
Ntp150
Rp151
(lp152
g1
(g24
g3
Ntp153
Rp154
(lp155
I0
ag1
(g28
g3
Ntp156
Rp157
(lp158
I0
aI0
abag32
abag1
(g33
g3
Ntp159
Rp160
(lp161
F0.0
aF0.0
aF0.0
abababag1
(g2
g3
Ntp162
Rp163
(lp164
I0
ag1
(g7
g3
Ntp165
Rp166
(lp167
g1
(g11
g3
Ntp168
Rp169
(lp170
F0.009495030753654838
aF0.1544630820123171
aF0.011891189575195337
abag1
(g15
g3
Ntp171
Rp172
(lp173
F-0.5106460722575866
aF-0.4891222637417967
aF-0.5106460722575865
aF0.4891222637417968
ababa(F0.13499999999999998
F0.13499999999999998
F0.0
F0.05
tp174
aF0.008711283561395985
aF0.023776206787448798
ag1
(g20
g3
Ntp175
Rp176
(lp177
g1
(g24
g3
Ntp178
Rp179
(lp180
I0
ag1
(g28
g3
Ntp181
Rp182
(lp183
I0
aI0
abag32
abag1
(g33
g3
Ntp184
Rp185
(lp186
F0.0
aF0.0
aF0.0
abababag1
(g2
g3
Ntp187
Rp188
(lp189
I0
ag1
(g7
g3
Ntp190
Rp191
(lp192
g1
(g11
g3
Ntp193
Rp194
(lp195
F-0.08692876461858359
aF0.17786236719851126
aF0.011891189575195341
abag1
(g15
g3
Ntp196
Rp197
(lp198
F-0.4163322389870612
aF-0.5715483066023559
aF-0.4163322389870612
aF0.5715483066023559
ababa(F0.0
F0.0
F0.32937500000000014
F0.32937500000000014
tp199
aF0.019645593136820592
aF0.020780657874690932
ag1
(g20
g3
Ntp200
Rp201
(lp202
g1
(g24
g3
Ntp203
Rp204
(lp205
I0
ag1
(g28
g3
Ntp206
Rp207
(lp208
I0
aI0
abag32
abag1
(g33
g3
Ntp209
Rp210
(lp211
F0.0
aF0.0
aF0.0
abababag1
(g2
g3
Ntp212
Rp213
(lp214
I0
ag1
(g7
g3
Ntp215
Rp216
(lp217
g1
(g11
g3
Ntp218
Rp219
(lp220
F-0.001321548461914059
aF-0.0024585647583007814
aF0.2186428527832031
abag1
(g15
g3
Ntp221
Rp222
(lp223
F-6.023154211493779e-17
aF3.688118262938378e-33
aF-1.0
aF6.123233995736766e-17
ababa(F0.21500000000000005
F0.21500000000000005
F0.20750000000000005
F0.20750000000000005
tp224
aF0.05699234352074748
aF0.020500253253773387
ag1
(g20
g3
Ntp225
Rp226
(lp227
g1
(g24
g3
Ntp228
Rp229
(lp230
I0
ag1
(g28
g3
Ntp231
Rp232
(lp233
I0
aI0
abag32
abag1
(g33
g3
Ntp234
Rp235
(lp236
F0.0
aF0.0
aF0.0
abababag1
(g2
g3
Ntp237
Rp238
(lp239
I0
ag1
(g7
g3
Ntp240
Rp241
(lp242
g1
(g11
g3
Ntp243
Rp244
(lp245
F0.10798745384508264
aF-0.17434887257855708
aF0.011891189575195284
abag1
(g15
g3
Ntp246
Rp247
(lp248
F-0.387773902049228
aF-0.5912963731408436
aF0.3877739020492278
aF-0.5912963731408436
ababa(F0.3850000000000002
F0.3850000000000002
F0.0
F0.0
tp249
aF0.0024239490130484737
aF0.01698966234721388
ag1
(g20
g3
Ntp250
Rp251
(lp252
g1
(g24
g3
Ntp253
Rp254
(lp255
I0
ag1
(g28
g3
Ntp256
Rp257
(lp258
I0
aI0
abag32
abag1
(g33
g3
Ntp259
Rp260
(lp261
F0.0
aF0.0
aF0.0
abababag1
(g2
g3
Ntp262
Rp263
(lp264
I0
ag1
(g7
g3
Ntp265
Rp266
(lp267
g1
(g11
g3
Ntp268
Rp269
(lp270
F-0.001321548461914059
aF-0.0024585647583007814
aF0.2186428527832031
abag1
(g15
g3
Ntp271
Rp272
(lp273
F-7.376236525876756e-33
aF-6.023154211493779e-17
aF-1.2246467991473532e-16
aF-1.0
ababa(F0.19750000000000004
F0.19750000000000004
F0.22375000000000006
F0.22375000000000006
tp274
aF-1.0
aF0.01474898630059752
ag1
(g20
g3
Ntp275
Rp276
(lp277
g1
(g24
g3
Ntp278
Rp279
(lp280
I0
ag1
(g28
g3
Ntp281
Rp282
(lp283
I0
aI0
abag32
abag1
(g33
g3
Ntp284
Rp285
(lp286
F0.0
aF0.0
aF0.0
abababag1
(g2
g3
Ntp287
Rp288
(lp289
I0
ag1
(g7
g3
Ntp290
Rp291
(lp292
g1
(g11
g3
Ntp293
Rp294
(lp295
F0.059195029570129995
aF-0.18473580703429268
aF0.01189118957519534
abag1
(g15
g3
Ntp296
Rp297
(lp298
F-0.4423904600198335
aF-0.5516254896969863
aF0.4423904600198335
aF-0.5516254896969865
ababa(F0.2712500000000001
F0.2712500000000001
F0.0
F0.0
tp299
aF-1.0
aF0.009604580662675324
ag1
(g20
g3
Ntp300
Rp301
(lp302
g1
(g24
g3
Ntp303
Rp304
(lp305
I0
ag1
(g28
g3
Ntp306
Rp307
(lp308
I0
aI0
abag32
abag1
(g33
g3
Ntp309
Rp310
(lp311
F0.0
aF0.0
aF0.0
abababag1
(g2
g3
Ntp312
Rp313
(lp314
I0
ag1
(g7
g3
Ntp315
Rp316
(lp317
g1
(g11
g3
Ntp318
Rp319
(lp320
F0.1849266306260267
aF0.04391663788361362
aF0.011891189575195348
abag1
(g15
g3
Ntp321
Rp322
(lp323
F-0.6957606683209876
aF-0.12616295976843916
aF-0.6957606683209876
aF0.12616295976843928
ababa(F0.34750000000000014
F0.34750000000000014
F0.0
F0.0
tp324
aF0.010242505539078219
aF0.009506057640462279
ag1
(g20
g3
Ntp325
Rp326
(lp327
g1
(g24
g3
Ntp328
Rp329
(lp330
I0
ag1
(g28
g3
Ntp331
Rp332
(lp333
I0
aI0
abag32
abag1
(g33
g3
Ntp334
Rp335
(lp336
F0.0
aF0.0
aF0.0
abababag1
(g2
g3
Ntp337
Rp338
(lp339
I0
ag1
(g7
g3
Ntp340
Rp341
(lp342
g1
(g11
g3
Ntp343
Rp344
(lp345
F-0.19324134847906688
aF0.07378318391402729
aF0.011891189575195363
abag1
(g15
g3
Ntp346
Rp347
(lp348
F-0.1832435311597106
aF-0.6829508095669266
aF-0.18324353115971043
aF0.6829508095669266
ababa(F0.0
F0.0
F0.5712500000000003
F0.5712500000000003
tp349
aF0.011199107178895079
aF0.006425999023975403
ag1
(g20
g3
Ntp350
Rp351
(lp352
g1
(g24
g3
Ntp353
Rp354
(lp355
I0
ag1
(g28
g3
Ntp356
Rp357
(lp358
I0
aI0
abag32
abag1
(g33
g3
Ntp359
Rp360
(lp361
F0.0
aF0.0
aF0.0
abababag1
(g2
g3
Ntp362
Rp363
(lp364
I0
ag1
(g7
g3
Ntp365
Rp366
(lp367
g1
(g11
g3
Ntp368
Rp369
(lp370
F-0.19107713039618585
aF-0.07744885025109431
aF0.011891189575195362
abag1
(g15
g3
Ntp371
Rp372
(lp373
F-0.6829508095669266
aF-0.18324353115970968
aF0.6829508095669267
aF-0.1832435311597099
ababa(F0.0
F0.0
F0.3412500000000001
F0.3412500000000001
tp374
aF-1.0
aF0.005068974100917
ag1
(g20
g3
Ntp375
Rp376
(lp377
g1
(g24
g3
Ntp378
Rp379
(lp380
I0
ag1
(g28
g3
Ntp381
Rp382
(lp383
I0
aI0
abag32
abag1
(g33
g3
Ntp384
Rp385
(lp386
F0.0
aF0.0
aF0.0
abababag1
(g2
g3
Ntp387
Rp388
(lp389
I0
ag1
(g7
g3
Ntp390
Rp391
(lp392
g1
(g11
g3
Ntp393
Rp394
(lp395
F-0.03752532586153043
aF0.18203602277276937
aF0.011891189575195341
abag1
(g15
g3
Ntp396
Rp397
(lp398
F-0.46649943711983066
aF-0.5313927692083147
aF-0.46649943711983066
aF0.5313927692083148
ababa(F0.0
F0.0
F0.20000000000000004
F0.20000000000000004
tp399
aF-1.0
aF0.0033301947598241813
ag1
(g20
g3
Ntp400
Rp401
(lp402
g1
(g24
g3
Ntp403
Rp404
(lp405
I0
ag1
(g28
g3
Ntp406
Rp407
(lp408
I0
aI0
abag32
abag1
(g33
g3
Ntp409
Rp410
(lp411
F0.0
aF0.0
aF0.0
abababag1
(g2
g3
Ntp412
Rp413
(lp414
I0
ag1
(g7
g3
Ntp415
Rp416
(lp417
g1
(g11
g3
Ntp418
Rp419
(lp420
F0.18382379449959863
aF0.10073918473863014
aF0.011891189575195329
abag1
(g15
g3
Ntp421
Rp422
(lp423
F-0.6670379824636548
aF-0.23464937662567317
aF-0.6670379824636548
aF0.2346493766256734
ababa(F0.5000000000000002
F0.5000000000000002
F0.0
F0.0
tp424
aF-1.0
aF0.002023441842275602
ag1
(g20
g3
Ntp425
Rp426
(lp427
g1
(g24
g3
Ntp428
Rp429
(lp430
I0
ag1
(g28
g3
Ntp431
Rp432
(lp433
I0
aI0
abag32
abag1
(g33
g3
Ntp434
Rp435
(lp436
F0.0
aF0.0
aF0.0
abababag1
(g2
g3
Ntp437
Rp438
(lp439
I0
ag1
(g7
g3
Ntp440
Rp441
(lp442
g1
(g11
g3
Ntp443
Rp444
(lp445
F-0.13663091510432063
aF-0.16863325826764447
aF0.011891189575195311
abag1
(g15
g3
Ntp446
Rp447
(lp448
F-0.6109127882865868
aF-0.3560696071106155
aF0.6109127882865866
aF-0.3560696071106155
ababa(F0.0
F0.0
F1.0471975511965976
F1.2217304763960306
tp449
aF-1.0
aF4.6418278719921465e-07
ag1
(g20
g3
Ntp450
Rp451
(lp452
g1
(g24
g3
Ntp453
Rp454
(lp455
I0
ag1
(g28
g3
Ntp456
Rp457
(lp458
I0
aI0
abag32
abag1
(g33
g3
Ntp459
Rp460
(lp461
F0.0
aF0.0
aF0.0
abababag1
(g2
g3
Ntp462
Rp463
(lp464
I0
ag1
(g7
g3
Ntp465
Rp466
(lp467
g1
(g11
g3
Ntp468
Rp469
(lp470
F0.11281334982566839
aF0.1805379436217866
aF0.011891189575195355
abag1
(g15
g3
Ntp471
Rp472
(lp473
F-0.5912963731408435
aF-0.3877739020492281
aF-0.5912963731408435
aF0.38777390204922835
ababa(F1.0471975511965976
F1.2217304763960306
F0.0
F0.0
tp474
aF-1.0
aF3.09355082802416e-07
ag1
(g20
g3
Ntp475
Rp476
(lp477
g1
(g24
g3
Ntp478
Rp479
(lp480
I0
ag1
(g28
g3
Ntp481
Rp482
(lp483
I0
aI0
abag32
abag1
(g33
g3
Ntp484
Rp485
(lp486
F0.0
aF0.0
aF0.0
abababag1
(g2
g3
Ntp487
Rp488
(lp489
I0
ag1
(g7
g3
Ntp490
Rp491
(lp492
g1
(g11
g3
Ntp493
Rp494
(lp495
F-0.1729994231125383
aF-0.12916486484427936
aF0.011891189575195313
abag1
(g15
g3
Ntp496
Rp497
(lp498
F-0.6491993364792614
aF-0.28025028370170624
aF0.6491993364792612
aF-0.28025028370170635
ababa(F0.0
F0.0
F1.0471975511965976
F1.2217304763960306
tp499
aF-1.0
aF8.577491423916549e-08
ag1
(g20
g3
Ntp500
Rp501
(lp502
g1
(g24
g3
Ntp503
Rp504
(lp505
I0
ag1
(g28
g3
Ntp506
Rp507
(lp508
I0
aI0
abag32
abag1
(g33
g3
Ntp509
Rp510
(lp511
F0.0
aF0.0
aF0.0
abababag1
(g2
g3
Ntp512
Rp513
(lp514
I0
ag1
(g7
g3
Ntp515
Rp516
(lp517
g1
(g11
g3
Ntp518
Rp519
(lp520
F0.1534196092619272
aF-0.15009195447882656
aF0.011891189575195355
abag1
(g15
g3
Ntp521
Rp522
(lp523
F-0.32048691442720656
aF-0.6303079705040453
aF0.32048691442720656
aF-0.6303079705040453
ababa(F1.0471975511965976
F1.2217304763960306
F0.0
F0.0
tp524
aF-1.0
aF3.243021652674528e-08
ag1
(g20
g3
Ntp525
Rp526
(lp527
g1
(g24
g3
Ntp528
Rp529
(lp530
I0
ag1
(g28
g3
Ntp531
Rp532
(lp533
I0
aI0
abag32
abag1
(g33
g3
Ntp534
Rp535
(lp536
F0.0
aF0.0
aF0.0
abababa.