(lp0
ccopy_reg
_reconstructor
p1
(cgraspit_interface.msg._Grasp
Grasp
p2
c__builtin__
object
p3
Ntp4
Rp5
(lp6
I0
ag1
(cgeometry_msgs.msg._Pose
Pose
p7
g3
Ntp8
Rp9
(lp10
g1
(cgeometry_msgs.msg._Point
Point
p11
g3
Ntp12
Rp13
(lp14
F-0.0023299980163574104
aF-0.0009255008697509765
aF0.17890499877929686
abag1
(cgeometry_msgs.msg._Quaternion
Quaternion
p15
g3
Ntp16
Rp17
(lp18
F-1.774787368979787e-17
aF-1.7747873689797864e-17
aF-0.7071067811865476
aF-0.7071067811865475
ababa(F0.0
F0.12249999999999997
F0.0125
F0.09749999999999998
tp19
aF0.2918293126889595
aF1.8484777583836771
ag1
(cgeometry_msgs.msg._Vector3Stamped
Vector3Stamped
p20
g3
Ntp21
Rp22
(lp23
g1
(cstd_msgs.msg._Header
Header
p24
g3
Ntp25
Rp26
(lp27
I0
ag1
(cgenpy.rostime
Time
p28
g3
Ntp29
Rp30
(lp31
I0
aI0
abaS''
p32
abag1
(cgeometry_msgs.msg._Vector3
Vector3
p33
g3
Ntp34
Rp35
(lp36
F0.0
aF0.0
aF0.0
abababag1
(g2
g3
Ntp37
Rp38
(lp39
I0
ag1
(g7
g3
Ntp40
Rp41
(lp42
g1
(g11
g3
Ntp43
Rp44
(lp45
F-0.0023299980163574104
aF-0.0009255008697509765
aF0.17890499877929686
abag1
(g15
g3
Ntp46
Rp47
(lp48
F-1.7747873689797864e-17
aF1.774787368979787e-17
aF-0.7071067811865475
aF0.7071067811865476
ababa(F0.0
F0.12249999999999997
F0.0125
F0.09499999999999999
tp49
aF0.22920779748005882
aF1.5058451084332656
ag1
(g20
g3
Ntp50
Rp51
(lp52
g1
(g24
g3
Ntp53
Rp54
(lp55
I0
ag1
(g28
g3
Ntp56
Rp57
(lp58
I0
aI0
abag32
abag1
(g33
g3
Ntp59
Rp60
(lp61
F0.0
aF0.0
aF0.0
abababag1
(g2
g3
Ntp62
Rp63
(lp64
I0
ag1
(g7
g3
Ntp65
Rp66
(lp67
g1
(g11
g3
Ntp68
Rp69
(lp70
F-0.0023299980163574113
aF-0.0009255008697509765
aF0.14921749877929688
abag1
(g15
g3
Ntp71
Rp72
(lp73
F-3.0737757413966062e-33
aF-2.5099283675396762e-17
aF-1.2246467991473532e-16
aF-1.0
ababa(F0.23125000000000007
F0.23125000000000007
F0.0
F0.7587500000000006
tp74
aF0.19009574530627885
aF1.2857038701606074
ag1
(g20
g3
Ntp75
Rp76
(lp77
g1
(g24
g3
Ntp78
Rp79
(lp80
I0
ag1
(g28
g3
Ntp81
Rp82
(lp83
I0
aI0
abag32
abag1
(g33
g3
Ntp84
Rp85
(lp86
F0.0
aF0.0
aF0.0
abababag1
(g2
g3
Ntp87
Rp88
(lp89
I0
ag1
(g7
g3
Ntp90
Rp91
(lp92
g1
(g11
g3
Ntp93
Rp94
(lp95
F-0.0023299980163574113
aF-0.0009255008697509765
aF0.14921749877929688
abag1
(g15
g3
Ntp96
Rp97
(lp98
F-2.5099283675396762e-17
aF1.5368878706983031e-33
aF-1.0
aF6.123233995736766e-17
ababa(F0.20000000000000004
F0.33500000000000013
F0.0
F0.7175000000000005
tp99
aF0.021485976058176648
aF1.0811782349623529
ag1
(g20
g3
Ntp100
Rp101
(lp102
g1
(g24
g3
Ntp103
Rp104
(lp105
I0
ag1
(g28
g3
Ntp106
Rp107
(lp108
I0
aI0
abag32
abag1
(g33
g3
Ntp109
Rp110
(lp111
F0.0
aF0.0
aF0.0
abababag1
(g2
g3
Ntp112
Rp113
(lp114
I0
ag1
(g7
g3
Ntp115
Rp116
(lp117
g1
(g11
g3
Ntp118
Rp119
(lp120
F-0.16667118128183409
aF0.01659104111715763
aF-0.007990001678466762
abag1
(g15
g3
Ntp121
Rp122
(lp123
F-0.07474507708708855
aF-0.7031452008307
aF-0.0747450770870885
aF0.7031452008306998
ababa(F0.02125
F0.02125
F0.44187500000000024
F0.44187500000000024
tp124
aF0.14590621069825027
aF0.3993972027814735
ag1
(g20
g3
Ntp125
Rp126
(lp127
g1
(g24
g3
Ntp128
Rp129
(lp130
I0
ag1
(g28
g3
Ntp131
Rp132
(lp133
I0
aI0
abag32
abag1
(g33
g3
Ntp134
Rp135
(lp136
F0.0
aF0.0
aF0.0
abababag1
(g2
g3
Ntp137
Rp138
(lp139
I0
ag1
(g7
g3
Ntp140
Rp141
(lp142
g1
(g11
g3
Ntp143
Rp144
(lp145
F0.01022108062362198
aF0.19672646958078327
aF-0.007990001678466738
abag1
(g15
g3
Ntp146
Rp147
(lp148
F-0.5091504174612748
aF-0.4906789708139218
aF-0.5091504174612749
aF0.490678970813922
ababa(F0.09437499999999999
F0.09437499999999999
F0.0
F0.0
tp149
aF0.08887455057884203
aF0.37140182483369655
ag1
(g20
g3
Ntp150
Rp151
(lp152
g1
(g24
g3
Ntp153
Rp154
(lp155
I0
ag1
(g28
g3
Ntp156
Rp157
(lp158
I0
aI0
abag32
abag1
(g33
g3
Ntp159
Rp160
(lp161
F0.0
aF0.0
aF0.0
abababag1
(g2
g3
Ntp162
Rp163
(lp164
I0
ag1
(g7
g3
Ntp165
Rp166
(lp167
g1
(g11
g3
Ntp168
Rp169
(lp170
F0.010024854987100979
aF-0.19326859651016093
aF-0.007990001678466738
abag1
(g15
g3
Ntp171
Rp172
(lp173
F-0.49067897081392187
aF-0.5091504174612747
aF0.490678970813922
aF-0.509150417461275
ababa(F0.08875
F0.08875
F0.0
F0.0
tp174
aF0.06515121088766929
aF0.25071308502687395
ag1
(g20
g3
Ntp175
Rp176
(lp177
g1
(g24
g3
Ntp178
Rp179
(lp180
I0
ag1
(g28
g3
Ntp181
Rp182
(lp183
I0
aI0
abag32
abag1
(g33
g3
Ntp184
Rp185
(lp186
F0.0
aF0.0
aF0.0
abababag1
(g2
g3
Ntp187
Rp188
(lp189
I0
ag1
(g7
g3
Ntp190
Rp191
(lp192
g1
(g11
g3
Ntp193
Rp194
(lp195
F-0.165907390114799
aF-0.018277803349660907
aF-0.007990001678466759
abag1
(g15
g3
Ntp196
Rp197
(lp198
F-0.7031452008307
aF-0.07474507708708766
aF0.7031452008307
aF-0.07474507708708766
ababa(F0.05750000000000001
F0.05750000000000001
F0.42125000000000024
F0.42125000000000024
tp199
aF0.0348300429588135
aF0.22303392424498988
ag1
(g20
g3
Ntp200
Rp201
(lp202
g1
(g24
g3
Ntp203
Rp204
(lp205
I0
ag1
(g28
g3
Ntp206
Rp207
(lp208
I0
aI0
abag32
abag1
(g33
g3
Ntp209
Rp210
(lp211
F0.0
aF0.0
aF0.0
abababag1
(g2
g3
Ntp212
Rp213
(lp214
I0
ag1
(g7
g3
Ntp215
Rp216
(lp217
g1
(g11
g3
Ntp218
Rp219
(lp220
F0.062222417107288694
aF-0.2038577245007805
aF-0.007990001678466817
abag1
(g15
g3
Ntp221
Rp222
(lp223
F-0.45069337582265423
aF-0.5448628093287152
aF0.4506933758226541
aF-0.5448628093287152
ababa(F0.35500000000000015
F0.35500000000000015
F0.0
F0.0
tp224
aF-1.0
aF0.08610998890450577
ag1
(g20
g3
Ntp225
Rp226
(lp227
g1
(g24
g3
Ntp228
Rp229
(lp230
I0
ag1
(g28
g3
Ntp231
Rp232
(lp233
I0
aI0
abag32
abag1
(g33
g3
Ntp234
Rp235
(lp236
F0.0
aF0.0
aF0.0
abababag1
(g2
g3
Ntp237
Rp238
(lp239
I0
ag1
(g7
g3
Ntp240
Rp241
(lp242
g1
(g11
g3
Ntp243
Rp244
(lp245
F0.1992332571109344
aF0.05180237044823882
aF-0.007990001678466816
abag1
(g15
g3
Ntp246
Rp247
(lp248
F-0.6921546972938237
aF-0.1446439594801509
aF-0.6921546972938234
aF0.14464395948015094
ababa(F0.45500000000000024
F0.45500000000000024
F0.0
F0.0
tp249
aF0.04188804356334698
aF0.05617672935718754
ag1
(g20
g3
Ntp250
Rp251
(lp252
g1
(g24
g3
Ntp253
Rp254
(lp255
I0
ag1
(g28
g3
Ntp256
Rp257
(lp258
I0
aI0
abag32
abag1
(g33
g3
Ntp259
Rp260
(lp261
F0.0
aF0.0
aF0.0
abababag1
(g2
g3
Ntp262
Rp263
(lp264
I0
ag1
(g7
g3
Ntp265
Rp266
(lp267
g1
(g11
g3
Ntp268
Rp269
(lp270
F-0.04144008869480517
aF0.20837509492622963
aF-0.007990001678466797
abag1
(g15
g3
Ntp271
Rp272
(lp273
F-0.4713351466271052
aF-0.527108318615828
aF-0.47133514662710513
aF0.5271083186158281
ababa(F0.0
F0.0
F0.23500000000000007
F0.23500000000000007
tp274
aF-1.0
aF0.04948141126198221
ag1
(g20
g3
Ntp275
Rp276
(lp277
g1
(g24
g3
Ntp278
Rp279
(lp280
I0
ag1
(g28
g3
Ntp281
Rp282
(lp283
I0
aI0
abag32
abag1
(g33
g3
Ntp284
Rp285
(lp286
F0.0
aF0.0
aF0.0
abababag1
(g2
g3
Ntp287
Rp288
(lp289
I0
ag1
(g7
g3
Ntp290
Rp291
(lp292
g1
(g11
g3
Ntp293
Rp294
(lp295
F-0.040952833052610126
aF-0.20587831482447633
aF-0.007990001678466783
abag1
(g15
g3
Ntp296
Rp297
(lp298
F-0.5271083186158281
aF-0.47133514662710513
aF0.5271083186158281
aF-0.4713351466271052
ababa(F0.0
F0.0
F0.20062500000000003
F0.20062500000000003
tp299
aF-1.0
aF0.049124346096832416
ag1
(g20
g3
Ntp300
Rp301
(lp302
g1
(g24
g3
Ntp303
Rp304
(lp305
I0
ag1
(g28
g3
Ntp306
Rp307
(lp308
I0
aI0
abag32
abag1
(g33
g3
Ntp309
Rp310
(lp311
F0.0
aF0.0
aF0.0
abababag1
(g2
g3
Ntp312
Rp313
(lp314
I0
ag1
(g7
g3
Ntp315
Rp316
(lp317
g1
(g11
g3
Ntp318
Rp319
(lp320
F-0.09113211486008528
aF-0.19348173275585018
aF-0.007990001678466804
abag1
(g15
g3
Ntp321
Rp322
(lp323
F-0.5626850099092707
aF-0.4282354254652504
aF0.5626850099092706
aF-0.42823542546525045
ababa(F0.0
F0.0
F0.45000000000000023
F0.45000000000000023
tp324
aF-1.0
aF0.0427082157762444
ag1
(g20
g3
Ntp325
Rp326
(lp327
g1
(g24
g3
Ntp328
Rp329
(lp330
I0
ag1
(g28
g3
Ntp331
Rp332
(lp333
I0
aI0
abag32
abag1
(g33
g3
Ntp334
Rp335
(lp336
F0.0
aF0.0
aF0.0
abababag1
(g2
g3
Ntp337
Rp338
(lp339
I0
ag1
(g7
g3
Ntp340
Rp341
(lp342
g1
(g11
g3
Ntp343
Rp344
(lp345
F0.061826905236438995
aF0.19993475913933867
aF-0.007990001678466804
abag1
(g15
g3
Ntp346
Rp347
(lp348
F-0.5448628093287151
aF-0.45069337582265423
aF-0.544862809328715
aF0.45069337582265423
ababa(F0.3050000000000001
F0.3050000000000001
F0.0
F0.0
tp349
aF-1.0
aF0.039439125599370295
ag1
(g20
g3
Ntp350
Rp351
(lp352
g1
(g24
g3
Ntp353
Rp354
(lp355
I0
ag1
(g28
g3
Ntp356
Rp357
(lp358
I0
aI0
abag32
abag1
(g33
g3
Ntp359
Rp360
(lp361
F0.0
aF0.0
aF0.0
abababag1
(g2
g3
Ntp362
Rp363
(lp364
I0
ag1
(g7
g3
Ntp365
Rp366
(lp367
g1
(g11
g3
Ntp368
Rp369
(lp370
F0.195797085236146
aF-0.05215163224789993
aF-0.007990001678466774
abag1
(g15
g3
Ntp371
Rp372
(lp373
F-0.14464395948014988
aF-0.6921546972938238
aF0.14464395948014977
aF-0.6921546972938238
ababa(F0.4175000000000002
F0.4175000000000002
F0.0
F0.0
tp374
aF0.030547917960144326
aF0.038598425959142355
ag1
(g20
g3
Ntp375
Rp376
(lp377
g1
(g24
g3
Ntp378
Rp379
(lp380
I0
ag1
(g28
g3
Ntp381
Rp382
(lp383
I0
aI0
abag32
abag1
(g33
g3
Ntp384
Rp385
(lp386
F0.0
aF0.0
aF0.0
abababag1
(g2
g3
Ntp387
Rp388
(lp389
I0
ag1
(g7
g3
Ntp390
Rp391
(lp392
g1
(g11
g3
Ntp393
Rp394
(lp395
F-0.20785838357348074
aF0.08523990346787709
aF-0.007990001678466783
abag1
(g15
g3
Ntp396
Rp397
(lp398
F-0.20660356701458477
aF-0.6762506680934592
aF-0.2066035670145846
aF0.6762506680934594
ababa(F0.0
F0.0
F1.0471975511965976
F1.2217304763960306
tp399
aF-1.0
aF2.654195482535839e-06
ag1
(g20
g3
Ntp400
Rp401
(lp402
g1
(g24
g3
Ntp403
Rp404
(lp405
I0
ag1
(g28
g3
Ntp406
Rp407
(lp408
I0
aI0
abag32
abag1
(g33
g3
Ntp409
Rp410
(lp411
F0.0
aF0.0
aF0.0
abababag1
(g2
g3
Ntp412
Rp413
(lp414
I0
ag1
(g7
g3
Ntp415
Rp416
(lp417
g1
(g11
g3
Ntp418
Rp419
(lp420
F0.1110469888194389
aF-0.18495993903601224
aF-0.007990001678466774
abag1
(g15
g3
Ntp421
Rp422
(lp423
F-0.40331660235900946
aF-0.5808060935127874
aF0.40331660235900924
aF-0.5808060935127876
ababa(F1.0471975511965976
F1.2217304763960306
F0.0
F0.0
tp424
aF-1.0
aF1.7198618274558502e-06
ag1
(g20
g3
Ntp425
Rp426
(lp427
g1
(g24
g3
Ntp428
Rp429
(lp430
I0
ag1
(g28
g3
Ntp431
Rp432
(lp433
I0
aI0
abag32
abag1
(g33
g3
Ntp434
Rp435
(lp436
F0.0
aF0.0
aF0.0
abababag1
(g2
g3
Ntp437
Rp438
(lp439
I0
ag1
(g7
g3
Ntp440
Rp441
(lp442
g1
(g11
g3
Ntp443
Rp444
(lp445
F-0.09183989307658652
aF0.1941909485967008
aF-0.00799000167846677
abag1
(g15
g3
Ntp446
Rp447
(lp448
F-0.42823542546525056
aF-0.5626850099092706
aF-0.4282354254652505
aF0.5626850099092706
ababa(F0.0
F0.0
F1.0471975511965976
F1.2217304763960306
tp449
aF-1.0
aF6.826377948065675e-07
ag1
(g20
g3
Ntp450
Rp451
(lp452
g1
(g24
g3
Ntp453
Rp454
(lp455
I0
ag1
(g28
g3
Ntp456
Rp457
(lp458
I0
aI0
abag32
abag1
(g33
g3
Ntp459
Rp460
(lp461
F0.0
aF0.0
aF0.0
abababag1
(g2
g3
Ntp462
Rp463
(lp464
I0
ag1
(g7
g3
Ntp465
Rp466
(lp467
g1
(g11
g3
Ntp468
Rp469
(lp470
F-0.13946812003692458
aF0.17167800450939086
aF-0.00799000167846677
abag1
(g15
g3
Ntp471
Rp472
(lp473
F-0.37512572198405647
aF-0.5994002775324185
aF-0.37512572198405647
aF0.5994002775324186
ababa(F0.0
F0.0
F1.0471975511965976
F1.2217304763960306
tp474
aF-1.0
aF5.188171548094471e-07
ag1
(g20
g3
Ntp475
Rp476
(lp477
g1
(g24
g3
Ntp478
Rp479
(lp480
I0
ag1
(g28
g3
Ntp481
Rp482
(lp483
I0
aI0
abag32
abag1
(g33
g3
Ntp484
Rp485
(lp486
F0.0
aF0.0
aF0.0
abababag1
(g2
g3
Ntp487
Rp488
(lp489
I0
ag1
(g7
g3
Ntp490
Rp491
(lp492
g1
(g11
g3
Ntp493
Rp494
(lp495
F0.1563645530772545
aF-0.15724651267077785
aF-0.0079900016784668
abag1
(g15
g3
Ntp496
Rp497
(lp498
F-0.34264648324544716
aF-0.6185413385696445
aF0.34264648324544705
aF-0.6185413385696445
ababa(F1.0471975511965976
F1.2217304763960306
F0.0
F0.0
tp499
aF-1.0
aF2.7255740920855754e-07
ag1
(g20
g3
Ntp500
Rp501
(lp502
g1
(g24
g3
Ntp503
Rp504
(lp505
I0
ag1
(g28
g3
Ntp506
Rp507
(lp508
I0
aI0
abag32
abag1
(g33
g3
Ntp509
Rp510
(lp511
F0.0
aF0.0
aF0.0
abababag1
(g2
g3
Ntp512
Rp513
(lp514
I0
ag1
(g7
g3
Ntp515
Rp516
(lp517
g1
(g11
g3
Ntp518
Rp519
(lp520
F0.1112380357031359
aF0.18362135641584
aF-0.007990001678466786
abag1
(g15
g3
Ntp521
Rp522
(lp523
F-0.5808060935127873
aF-0.4033166023590095
aF-0.5808060935127873
aF0.40331660235900957
ababa(F1.0471975511965976
F1.2217304763960306
F0.0
F0.0
tp524
aF-1.0
aF2.3623045111042423e-07
ag1
(g20
g3
Ntp525
Rp526
(lp527
g1
(g24
g3
Ntp528
Rp529
(lp530
I0
ag1
(g28
g3
Ntp531
Rp532
(lp533
I0
aI0
abag32
abag1
(g33
g3
Ntp534
Rp535
(lp536
F0.0
aF0.0
aF0.0
abababag1
(g2
g3
Ntp537
Rp538
(lp539
I0
ag1
(g7
g3
Ntp540
Rp541
(lp542
g1
(g11
g3
Ntp543
Rp544
(lp545
F-0.18195149114533016
aF0.13762845428791926
aF-0.007990001678466785
abag1
(g15
g3
Ntp546
Rp547
(lp548
F-0.3046432631987579
aF-0.638116354740742
aF-0.3046432631987577
aF0.638116354740742
ababa(F0.0
F0.0
F1.0471975511965976
F1.2217304763960306
tp549
aF-1.0
aF1.3977052298788378e-07
ag1
(g20
g3
Ntp550
Rp551
(lp552
g1
(g24
g3
Ntp553
Rp554
(lp555
I0
ag1
(g28
g3
Ntp556
Rp557
(lp558
I0
aI0
abag32
abag1
(g33
g3
Ntp559
Rp560
(lp561
F0.0
aF0.0
aF0.0
abababa.